

Microchip MPLAB XC8 Assembler V2.32 build 20210201212658 
                                                                                               Mon Mar 07 11:12:45 2022

Microchip MPLAB XC8 C Compiler v2.32 (Free license) build 20210201212658 Og1 
     1                           	processor	16F887
     2                           	pagewidth 120
     3                           	opt	flic
     4                           	psect	idataCOMMON,global,class=CODE,delta=2,noexec
     5                           	psect	strings,global,class=STRING,delta=2,noexec
     6                           	psect	cinit,global,class=CODE,merge=1,delta=2
     7                           	psect	bssCOMMON,global,class=COMMON,space=1,delta=1,noexec
     8                           	psect	dataCOMMON,global,class=COMMON,space=1,delta=1,noexec
     9                           	psect	cstackBANK1,global,class=BANK1,space=1,delta=1,noexec
    10                           	psect	cstackCOMMON,global,class=COMMON,space=1,delta=1,noexec
    11                           	psect	cstackBANK0,global,class=BANK0,space=1,delta=1,noexec
    12                           	psect	maintext,global,class=CODE,split=1,delta=2
    13                           	psect	text1,local,class=CODE,merge=1,delta=2
    14                           	psect	text2,local,class=CODE,merge=1,delta=2
    15                           	psect	text3,local,class=CODE,merge=1,delta=2
    16                           	psect	text4,local,class=CODE,merge=1,delta=2
    17                           	psect	text5,local,class=CODE,merge=1,delta=2
    18                           	psect	text6,local,class=CODE,merge=1,delta=2
    19                           	psect	text7,local,class=CODE,merge=1,delta=2,group=1
    20                           	psect	text8,local,class=CODE,merge=1,delta=2
    21                           	psect	text9,local,class=CODE,merge=1,delta=2
    22                           	psect	text10,local,class=CODE,merge=1,delta=2
    23                           	psect	text11,local,class=CODE,merge=1,delta=2
    24                           	psect	text12,local,class=CODE,merge=1,delta=2
    25                           	psect	text13,local,class=CODE,merge=1,delta=2,group=1
    26                           	psect	text14,local,class=CODE,merge=1,delta=2,group=1
    27                           	psect	text15,local,class=CODE,merge=1,delta=2,group=1
    28                           	psect	text16,local,class=CODE,merge=1,delta=2,group=1
    29                           	psect	text17,local,class=CODE,merge=1,delta=2,group=1
    30                           	psect	text18,local,class=CODE,merge=1,delta=2,group=1
    31                           	psect	text19,local,class=CODE,merge=1,delta=2
    32                           	psect	text20,local,class=CODE,merge=1,delta=2
    33                           	psect	text21,local,class=CODE,merge=1,delta=2
    34                           	psect	text22,local,class=CODE,merge=1,delta=2,group=1
    35                           	psect	text23,local,class=CODE,merge=1,delta=2,group=1
    36                           	psect	text24,local,class=CODE,merge=1,delta=2,group=1
    37                           	psect	text25,local,class=CODE,merge=1,delta=2
    38                           	psect	text26,local,class=CODE,merge=1,delta=2
    39                           	psect	text27,local,class=CODE,merge=1,delta=2
    40                           	psect	text28,local,class=CODE,merge=1,delta=2
    41                           	psect	text29,local,class=CODE,merge=1,delta=2
    42                           	psect	text30,local,class=CODE,merge=1,delta=2
    43                           	psect	text31,local,class=CODE,merge=1,delta=2
    44                           	psect	text32,local,class=CODE,merge=1,delta=2
    45                           	psect	intentry,global,class=CODE,delta=2
    46                           	psect	text33,local,class=CODE,merge=1,delta=2
    47                           	psect	text34,local,class=CODE,merge=1,delta=2
    48                           	psect	text35,local,class=CODE,merge=1,delta=2
    49                           	psect	text36,local,class=CODE,merge=1,delta=2
    50                           	psect	text37,local,class=CODE,merge=1,delta=2
    51                           	psect	config,global,abs,ovrld,class=CONFIG,space=4,delta=2,noexec
    52                           	dabs	1,0x7E,2
    53  0000                     
    54                           ; Version 2.20
    55                           ; Generated 12/02/2020 GMT
    56                           ; 
    57                           ; Copyright © 2020, Microchip Technology Inc. and its subsidiaries ("Microchip")
    58                           ; All rights reserved.
    59                           ; 
    60                           ; This software is developed by Microchip Technology Inc. and its subsidiaries ("Microch
      +                          ip").
    61                           ; 
    62                           ; Redistribution and use in source and binary forms, with or without modification, are
    63                           ; permitted provided that the following conditions are met:
    64                           ; 
    65                           ;     1. Redistributions of source code must retain the above copyright notice, this lis
      +                          t of
    66                           ;        conditions and the following disclaimer.
    67                           ; 
    68                           ;     2. Redistributions in binary form must reproduce the above copyright notice, this 
      +                          list
    69                           ;        of conditions and the following disclaimer in the documentation and/or other
    70                           ;        materials provided with the distribution.
    71                           ; 
    72                           ;     3. Microchip's name may not be used to endorse or promote products derived from th
      +                          is
    73                           ;        software without specific prior written permission.
    74                           ; 
    75                           ; THIS SOFTWARE IS PROVIDED BY MICROCHIP "AS IS" AND ANY EXPRESS OR IMPLIED WARRANTIES,
    76                           ; INCLUDING, BUT NOT LIMITED TO, THE IMPLIED WARRANTIES OF MERCHANTABILITY AND FITNESS F
      +                          OR
    77                           ; PURPOSE ARE DISCLAIMED.  IN NO EVENT SHALL MICROCHIP BE LIABLE FOR ANY DIRECT, INDIREC
      +                          T,
    78                           ; INCIDENTAL, SPECIAL, EXEMPLARY, OR CONSEQUENTIAL DAMAGES (INCLUDING BUT NOT LIMITED TO
    79                           ; PROCUREMENT OF SUBSTITUTE GOODS OR SERVICES; LOSS OF USE, DATA OR PROFITS; OR BUSINESS
    80                           ; INTERRUPTION) HOWSOEVER CAUSED AND ON ANY THEORY OF LIABILITY, WHETHER IN CONTRACT, ST
      +                          RICT
    81                           ; LIABILITY, OR TORT (INCLUDING NEGLIGENCE OR OTHERWISE) ARISING IN ANY WAY OUT OF THE U
      +                          SE OF
    82                           ; THIS SOFTWARE, EVEN IF ADVISED OF THE POSSIBILITY OF SUCH DAMAGE.
    83                           ; 
    84                           ; 
    85                           ; Code-generator required, PIC16F887 Definitions
    86                           ; 
    87                           ; SFR Addresses
    88  0000                     	;# 
    89  0001                     	;# 
    90  0002                     	;# 
    91  0003                     	;# 
    92  0004                     	;# 
    93  0005                     	;# 
    94  0006                     	;# 
    95  0007                     	;# 
    96  0008                     	;# 
    97  0009                     	;# 
    98  000A                     	;# 
    99  000B                     	;# 
   100  000C                     	;# 
   101  000D                     	;# 
   102  000E                     	;# 
   103  000E                     	;# 
   104  000F                     	;# 
   105  0010                     	;# 
   106  0011                     	;# 
   107  0012                     	;# 
   108  0013                     	;# 
   109  0014                     	;# 
   110  0015                     	;# 
   111  0015                     	;# 
   112  0016                     	;# 
   113  0017                     	;# 
   114  0018                     	;# 
   115  0019                     	;# 
   116  001A                     	;# 
   117  001B                     	;# 
   118  001B                     	;# 
   119  001C                     	;# 
   120  001D                     	;# 
   121  001E                     	;# 
   122  001F                     	;# 
   123  0081                     	;# 
   124  0085                     	;# 
   125  0086                     	;# 
   126  0087                     	;# 
   127  0088                     	;# 
   128  0089                     	;# 
   129  008C                     	;# 
   130  008D                     	;# 
   131  008E                     	;# 
   132  008F                     	;# 
   133  0090                     	;# 
   134  0091                     	;# 
   135  0092                     	;# 
   136  0093                     	;# 
   137  0093                     	;# 
   138  0093                     	;# 
   139  0094                     	;# 
   140  0095                     	;# 
   141  0096                     	;# 
   142  0097                     	;# 
   143  0098                     	;# 
   144  0099                     	;# 
   145  009A                     	;# 
   146  009B                     	;# 
   147  009C                     	;# 
   148  009D                     	;# 
   149  009E                     	;# 
   150  009F                     	;# 
   151  0105                     	;# 
   152  0107                     	;# 
   153  0108                     	;# 
   154  0109                     	;# 
   155  010C                     	;# 
   156  010C                     	;# 
   157  010D                     	;# 
   158  010E                     	;# 
   159  010F                     	;# 
   160  0185                     	;# 
   161  0187                     	;# 
   162  0188                     	;# 
   163  0189                     	;# 
   164  018C                     	;# 
   165  018D                     	;# 
   166  0000                     	;# 
   167  0001                     	;# 
   168  0002                     	;# 
   169  0003                     	;# 
   170  0004                     	;# 
   171  0005                     	;# 
   172  0006                     	;# 
   173  0007                     	;# 
   174  0008                     	;# 
   175  0009                     	;# 
   176  000A                     	;# 
   177  000B                     	;# 
   178  000C                     	;# 
   179  000D                     	;# 
   180  000E                     	;# 
   181  000E                     	;# 
   182  000F                     	;# 
   183  0010                     	;# 
   184  0011                     	;# 
   185  0012                     	;# 
   186  0013                     	;# 
   187  0014                     	;# 
   188  0015                     	;# 
   189  0015                     	;# 
   190  0016                     	;# 
   191  0017                     	;# 
   192  0018                     	;# 
   193  0019                     	;# 
   194  001A                     	;# 
   195  001B                     	;# 
   196  001B                     	;# 
   197  001C                     	;# 
   198  001D                     	;# 
   199  001E                     	;# 
   200  001F                     	;# 
   201  0081                     	;# 
   202  0085                     	;# 
   203  0086                     	;# 
   204  0087                     	;# 
   205  0088                     	;# 
   206  0089                     	;# 
   207  008C                     	;# 
   208  008D                     	;# 
   209  008E                     	;# 
   210  008F                     	;# 
   211  0090                     	;# 
   212  0091                     	;# 
   213  0092                     	;# 
   214  0093                     	;# 
   215  0093                     	;# 
   216  0093                     	;# 
   217  0094                     	;# 
   218  0095                     	;# 
   219  0096                     	;# 
   220  0097                     	;# 
   221  0098                     	;# 
   222  0099                     	;# 
   223  009A                     	;# 
   224  009B                     	;# 
   225  009C                     	;# 
   226  009D                     	;# 
   227  009E                     	;# 
   228  009F                     	;# 
   229  0105                     	;# 
   230  0107                     	;# 
   231  0108                     	;# 
   232  0109                     	;# 
   233  010C                     	;# 
   234  010C                     	;# 
   235  010D                     	;# 
   236  010E                     	;# 
   237  010F                     	;# 
   238  0185                     	;# 
   239  0187                     	;# 
   240  0188                     	;# 
   241  0189                     	;# 
   242  018C                     	;# 
   243  018D                     	;# 
   244  0000                     	;# 
   245  0001                     	;# 
   246  0002                     	;# 
   247  0003                     	;# 
   248  0004                     	;# 
   249  0005                     	;# 
   250  0006                     	;# 
   251  0007                     	;# 
   252  0008                     	;# 
   253  0009                     	;# 
   254  000A                     	;# 
   255  000B                     	;# 
   256  000C                     	;# 
   257  000D                     	;# 
   258  000E                     	;# 
   259  000E                     	;# 
   260  000F                     	;# 
   261  0010                     	;# 
   262  0011                     	;# 
   263  0012                     	;# 
   264  0013                     	;# 
   265  0014                     	;# 
   266  0015                     	;# 
   267  0015                     	;# 
   268  0016                     	;# 
   269  0017                     	;# 
   270  0018                     	;# 
   271  0019                     	;# 
   272  001A                     	;# 
   273  001B                     	;# 
   274  001B                     	;# 
   275  001C                     	;# 
   276  001D                     	;# 
   277  001E                     	;# 
   278  001F                     	;# 
   279  0081                     	;# 
   280  0085                     	;# 
   281  0086                     	;# 
   282  0087                     	;# 
   283  0088                     	;# 
   284  0089                     	;# 
   285  008C                     	;# 
   286  008D                     	;# 
   287  008E                     	;# 
   288  008F                     	;# 
   289  0090                     	;# 
   290  0091                     	;# 
   291  0092                     	;# 
   292  0093                     	;# 
   293  0093                     	;# 
   294  0093                     	;# 
   295  0094                     	;# 
   296  0095                     	;# 
   297  0096                     	;# 
   298  0097                     	;# 
   299  0098                     	;# 
   300  0099                     	;# 
   301  009A                     	;# 
   302  009B                     	;# 
   303  009C                     	;# 
   304  009D                     	;# 
   305  009E                     	;# 
   306  009F                     	;# 
   307  0105                     	;# 
   308  0107                     	;# 
   309  0108                     	;# 
   310  0109                     	;# 
   311  010C                     	;# 
   312  010C                     	;# 
   313  010D                     	;# 
   314  010E                     	;# 
   315  010F                     	;# 
   316  0185                     	;# 
   317  0187                     	;# 
   318  0188                     	;# 
   319  0189                     	;# 
   320  018C                     	;# 
   321  018D                     	;# 
   322  0000                     	;# 
   323  0001                     	;# 
   324  0002                     	;# 
   325  0003                     	;# 
   326  0004                     	;# 
   327  0005                     	;# 
   328  0006                     	;# 
   329  0007                     	;# 
   330  0008                     	;# 
   331  0009                     	;# 
   332  000A                     	;# 
   333  000B                     	;# 
   334  000C                     	;# 
   335  000D                     	;# 
   336  000E                     	;# 
   337  000E                     	;# 
   338  000F                     	;# 
   339  0010                     	;# 
   340  0011                     	;# 
   341  0012                     	;# 
   342  0013                     	;# 
   343  0014                     	;# 
   344  0015                     	;# 
   345  0015                     	;# 
   346  0016                     	;# 
   347  0017                     	;# 
   348  0018                     	;# 
   349  0019                     	;# 
   350  001A                     	;# 
   351  001B                     	;# 
   352  001B                     	;# 
   353  001C                     	;# 
   354  001D                     	;# 
   355  001E                     	;# 
   356  001F                     	;# 
   357  0081                     	;# 
   358  0085                     	;# 
   359  0086                     	;# 
   360  0087                     	;# 
   361  0088                     	;# 
   362  0089                     	;# 
   363  008C                     	;# 
   364  008D                     	;# 
   365  008E                     	;# 
   366  008F                     	;# 
   367  0090                     	;# 
   368  0091                     	;# 
   369  0092                     	;# 
   370  0093                     	;# 
   371  0093                     	;# 
   372  0093                     	;# 
   373  0094                     	;# 
   374  0095                     	;# 
   375  0096                     	;# 
   376  0097                     	;# 
   377  0098                     	;# 
   378  0099                     	;# 
   379  009A                     	;# 
   380  009B                     	;# 
   381  009C                     	;# 
   382  009D                     	;# 
   383  009E                     	;# 
   384  009F                     	;# 
   385  0105                     	;# 
   386  0107                     	;# 
   387  0108                     	;# 
   388  0109                     	;# 
   389  010C                     	;# 
   390  010C                     	;# 
   391  010D                     	;# 
   392  010E                     	;# 
   393  010F                     	;# 
   394  0185                     	;# 
   395  0187                     	;# 
   396  0188                     	;# 
   397  0189                     	;# 
   398  018C                     	;# 
   399  018D                     	;# 
   400  0000                     	;# 
   401  0001                     	;# 
   402  0002                     	;# 
   403  0003                     	;# 
   404  0004                     	;# 
   405  0005                     	;# 
   406  0006                     	;# 
   407  0007                     	;# 
   408  0008                     	;# 
   409  0009                     	;# 
   410  000A                     	;# 
   411  000B                     	;# 
   412  000C                     	;# 
   413  000D                     	;# 
   414  000E                     	;# 
   415  000E                     	;# 
   416  000F                     	;# 
   417  0010                     	;# 
   418  0011                     	;# 
   419  0012                     	;# 
   420  0013                     	;# 
   421  0014                     	;# 
   422  0015                     	;# 
   423  0015                     	;# 
   424  0016                     	;# 
   425  0017                     	;# 
   426  0018                     	;# 
   427  0019                     	;# 
   428  001A                     	;# 
   429  001B                     	;# 
   430  001B                     	;# 
   431  001C                     	;# 
   432  001D                     	;# 
   433  001E                     	;# 
   434  001F                     	;# 
   435  0081                     	;# 
   436  0085                     	;# 
   437  0086                     	;# 
   438  0087                     	;# 
   439  0088                     	;# 
   440  0089                     	;# 
   441  008C                     	;# 
   442  008D                     	;# 
   443  008E                     	;# 
   444  008F                     	;# 
   445  0090                     	;# 
   446  0091                     	;# 
   447  0092                     	;# 
   448  0093                     	;# 
   449  0093                     	;# 
   450  0093                     	;# 
   451  0094                     	;# 
   452  0095                     	;# 
   453  0096                     	;# 
   454  0097                     	;# 
   455  0098                     	;# 
   456  0099                     	;# 
   457  009A                     	;# 
   458  009B                     	;# 
   459  009C                     	;# 
   460  009D                     	;# 
   461  009E                     	;# 
   462  009F                     	;# 
   463  0105                     	;# 
   464  0107                     	;# 
   465  0108                     	;# 
   466  0109                     	;# 
   467  010C                     	;# 
   468  010C                     	;# 
   469  010D                     	;# 
   470  010E                     	;# 
   471  010F                     	;# 
   472  0185                     	;# 
   473  0187                     	;# 
   474  0188                     	;# 
   475  0189                     	;# 
   476  018C                     	;# 
   477  018D                     	;# 
   478  0000                     	;# 
   479  0001                     	;# 
   480  0002                     	;# 
   481  0003                     	;# 
   482  0004                     	;# 
   483  0005                     	;# 
   484  0006                     	;# 
   485  0007                     	;# 
   486  0008                     	;# 
   487  0009                     	;# 
   488  000A                     	;# 
   489  000B                     	;# 
   490  000C                     	;# 
   491  000D                     	;# 
   492  000E                     	;# 
   493  000E                     	;# 
   494  000F                     	;# 
   495  0010                     	;# 
   496  0011                     	;# 
   497  0012                     	;# 
   498  0013                     	;# 
   499  0014                     	;# 
   500  0015                     	;# 
   501  0015                     	;# 
   502  0016                     	;# 
   503  0017                     	;# 
   504  0018                     	;# 
   505  0019                     	;# 
   506  001A                     	;# 
   507  001B                     	;# 
   508  001B                     	;# 
   509  001C                     	;# 
   510  001D                     	;# 
   511  001E                     	;# 
   512  001F                     	;# 
   513  0081                     	;# 
   514  0085                     	;# 
   515  0086                     	;# 
   516  0087                     	;# 
   517  0088                     	;# 
   518  0089                     	;# 
   519  008C                     	;# 
   520  008D                     	;# 
   521  008E                     	;# 
   522  008F                     	;# 
   523  0090                     	;# 
   524  0091                     	;# 
   525  0092                     	;# 
   526  0093                     	;# 
   527  0093                     	;# 
   528  0093                     	;# 
   529  0094                     	;# 
   530  0095                     	;# 
   531  0096                     	;# 
   532  0097                     	;# 
   533  0098                     	;# 
   534  0099                     	;# 
   535  009A                     	;# 
   536  009B                     	;# 
   537  009C                     	;# 
   538  009D                     	;# 
   539  009E                     	;# 
   540  009F                     	;# 
   541  0105                     	;# 
   542  0107                     	;# 
   543  0108                     	;# 
   544  0109                     	;# 
   545  010C                     	;# 
   546  010C                     	;# 
   547  010D                     	;# 
   548  010E                     	;# 
   549  010F                     	;# 
   550  0185                     	;# 
   551  0187                     	;# 
   552  0188                     	;# 
   553  0189                     	;# 
   554  018C                     	;# 
   555  018D                     	;# 
   556                           
   557                           	psect	idataCOMMON
   558  07F9                     __pidataCOMMON:
   559                           
   560                           ;initializer for _sign
   561  07F9  342B               	retlw	43
   562  07FA  3400               	retlw	0
   563  0019                     _TXREG	set	25
   564  0018                     _RCSTAbits	set	24
   565  0008                     _PORTD	set	8
   566  0006                     _PORTBbits	set	6
   567  0013                     _SSPBUF	set	19
   568  0014                     _SSPCON	set	20
   569  000B                     _INTCONbits	set	11
   570  0005                     _PORTA	set	5
   571  001A                     _RCREG	set	26
   572  000C                     _PIR1bits	set	12
   573  005E                     _PEIE	set	94
   574  005F                     _GIE	set	95
   575  0063                     _SSPIF	set	99
   576  009A                     _SPBRGH	set	154
   577  0099                     _SPBRG	set	153
   578  0098                     _TXSTAbits	set	152
   579  0091                     _SSPCON2bits	set	145
   580  0087                     _TRISCbits	set	135
   581  0094                     _SSPSTAT	set	148
   582  0093                     _SSPADD	set	147
   583  0091                     _SSPCON2	set	145
   584  008C                     _PIE1bits	set	140
   585  008F                     _OSCCONbits	set	143
   586  0088                     _TRISD	set	136
   587  0086                     _TRISBbits	set	134
   588  0085                     _TRISA	set	133
   589  0463                     _SSPIE	set	1123
   590  043C                     _TRISC4	set	1084
   591  043B                     _TRISC3	set	1083
   592  048C                     _ACKEN	set	1164
   593  048D                     _ACKDT	set	1165
   594  04A0                     _BF	set	1184
   595  048B                     _RCEN	set	1163
   596  0488                     _SEN	set	1160
   597  0187                     _BAUDCTLbits	set	391
   598  0189                     _ANSELH	set	393
   599  0188                     _ANSEL	set	392
   600                           
   601                           	psect	strings
   602  1000                     __pstrings:
   603  1000                     stringtab:
   604  1000                     __stringtab:
   605  1000                     stringcode:	
   606                           ;	String table - string pointers are 1 byte each
   607                           
   608  1000                     stringdir:
   609  1000  3010               	movlw	high stringdir
   610  1001  008A               	movwf	10
   611  1002  0804               	movf	4,w
   612  1003  0A84               	incf	4,f
   613  1004  0782               	addwf	2,f
   614  1005                     __stringbase:
   615  1005  3400               	retlw	0
   616  1006                     __end_of__stringtab:
   617  1006                     STR_6:
   618  1006  3454               	retlw	84	;'T'
   619  1007  3445               	retlw	69	;'E'
   620  1008  344D               	retlw	77	;'M'
   621  1009  3450               	retlw	80	;'P'
   622  100A  343A               	retlw	58	;':'
   623  100B  3420               	retlw	32	;' '
   624  100C  3400               	retlw	0
   625  100D                     STR_3:
   626  100D  3452               	retlw	82	;'R'
   627  100E  3445               	retlw	69	;'E'
   628  100F  3444               	retlw	68	;'D'
   629  1010  3420               	retlw	32	;' '
   630  1011  3420               	retlw	32	;' '
   631  1012  3420               	retlw	32	;' '
   632  1013  3400               	retlw	0
   633  1014                     STR_2:
   634  1014  344F               	retlw	79	;'O'
   635  1015  3446               	retlw	70	;'F'
   636  1016  3446               	retlw	70	;'F'
   637  1017  3420               	retlw	32	;' '
   638  1018  3420               	retlw	32	;' '
   639  1019  3420               	retlw	32	;' '
   640  101A  3400               	retlw	0
   641  101B                     STR_5:
   642  101B  3447               	retlw	71	;'G'
   643  101C  3452               	retlw	82	;'R'
   644  101D  344E               	retlw	78	;'N'
   645  101E  3420               	retlw	32	;' '
   646  101F  3420               	retlw	32	;' '
   647  1020  3420               	retlw	32	;' '
   648  1021  3400               	retlw	0
   649  1022                     STR_4:
   650  1022  3459               	retlw	89	;'Y'
   651  1023  344C               	retlw	76	;'L'
   652  1024  3457               	retlw	87	;'W'
   653  1025  3420               	retlw	32	;' '
   654  1026  3420               	retlw	32	;' '
   655  1027  3420               	retlw	32	;' '
   656  1028  3400               	retlw	0
   657  1029                     STR_1:
   658  1029  3453               	retlw	83	;'S'
   659  102A  3445               	retlw	69	;'E'
   660  102B  344D               	retlw	77	;'M'
   661  102C  3446               	retlw	70	;'F'
   662  102D  343A               	retlw	58	;':'
   663  102E  3420               	retlw	32	;' '
   664  102F  3400               	retlw	0
   665  1030                     STR_7:
   666  1030  3420               	retlw	32	;' '
   667  1031  3443               	retlw	67	;'C'
   668  1032  3400               	retlw	0
   669                           
   670                           	psect	cinit
   671  000F                     start_initialization:	
   672                           ; #config settings
   673                           
   674  000F                     __initialization:
   675                           
   676                           ; Initialize objects allocated to COMMON
   677  000F  120A  118A  27F9  120A  118A  	fcall	__pidataCOMMON	;fetch initializer
   678  0014  00FB               	movwf	__pdataCOMMON& (0+127)
   679  0015  120A  118A  27FA  120A  118A  	fcall	__pidataCOMMON+1	;fetch initializer
   680  001A  00FC               	movwf	(__pdataCOMMON+1)& (0+127)
   681                           
   682                           ; Clear objects allocated to COMMON
   683  001B  01F9               	clrf	__pbssCOMMON& (0+127)
   684  001C  01FA               	clrf	(__pbssCOMMON+1)& (0+127)
   685  001D                     end_of_initialization:	
   686                           ;End of C runtime variable initialization code
   687                           
   688  001D                     __end_of__initialization:
   689  001D  0183               	clrf	3
   690  001E  120A  158A  285D   	ljmp	_main	;jump to C main() function
   691                           
   692                           	psect	bssCOMMON
   693  0079                     __pbssCOMMON:
   694  0079                     __rx_data:
   695  0079                     	ds	1
   696  007A                     __lights:
   697  007A                     	ds	1
   698                           
   699                           	psect	dataCOMMON
   700  007B                     __pdataCOMMON:
   701  007B                     _sign:
   702  007B                     	ds	2
   703                           
   704                           	psect	cstackBANK1
   705  00A0                     __pcstackBANK1:
   706  00A0                     ___flmul@sign:
   707                           
   708                           ; 1 bytes @ 0x0
   709  00A0                     	ds	1
   710  00A1                     ___flmul@grs:
   711                           
   712                           ; 4 bytes @ 0x1
   713  00A1                     	ds	4
   714  00A5                     ___flmul@aexp:
   715                           
   716                           ; 1 bytes @ 0x5
   717  00A5                     	ds	1
   718  00A6                     ___flmul@bexp:
   719                           
   720                           ; 1 bytes @ 0x6
   721  00A6                     	ds	1
   722  00A7                     ___flmul@prod:
   723                           
   724                           ; 4 bytes @ 0x7
   725  00A7                     	ds	4
   726  00AB                     ___flmul@temp:
   727                           
   728                           ; 2 bytes @ 0xB
   729  00AB                     	ds	2
   730  00AD                     ??___fltol:
   731                           
   732                           ; 1 bytes @ 0xD
   733  00AD                     	ds	5
   734  00B2                     ??_MPU6050_Read:
   735                           
   736                           ; 1 bytes @ 0x12
   737  00B2                     	ds	4
   738  00B6                     MPU6050_Read@T:
   739                           
   740                           ; 2 bytes @ 0x16
   741  00B6                     	ds	2
   742  00B8                     MPU6050_Read@t:
   743                           
   744                           ; 2 bytes @ 0x18
   745  00B8                     	ds	2
   746  00BA                     ??_main:
   747                           
   748                           ; 1 bytes @ 0x1A
   749  00BA                     	ds	3
   750                           
   751                           	psect	cstackCOMMON
   752  0070                     __pcstackCOMMON:
   753  0070                     ?_setup:
   754  0070                     ?_clearLCD:	
   755                           ; 1 bytes @ 0x0
   756                           
   757  0070                     ?_MPU6050_Read:	
   758                           ; 1 bytes @ 0x0
   759                           
   760  0070                     ?_writeString:	
   761                           ; 1 bytes @ 0x0
   762                           
   763  0070                     ?_initLCD:	
   764                           ; 1 bytes @ 0x0
   765                           
   766  0070                     ?_initUART:	
   767                           ; 1 bytes @ 0x0
   768                           
   769  0070                     ?_MPU6050_Init:	
   770                           ; 1 bytes @ 0x0
   771                           
   772  0070                     ?_I2C_Master_Start:	
   773                           ; 1 bytes @ 0x0
   774                           
   775  0070                     ??_I2C_Master_Start:	
   776                           ; 1 bytes @ 0x0
   777                           
   778  0070                     ?_I2C_Master_Stop:	
   779                           ; 1 bytes @ 0x0
   780                           
   781  0070                     ?_I2C_ACK:	
   782                           ; 1 bytes @ 0x0
   783                           
   784  0070                     ?_I2C_NACK:	
   785                           ; 1 bytes @ 0x0
   786                           
   787  0070                     ?_setCmd:	
   788                           ; 1 bytes @ 0x0
   789                           
   790  0070                     ?_BAUDSelect:	
   791                           ; 1 bytes @ 0x0
   792                           
   793  0070                     ?_isr:	
   794                           ; 1 bytes @ 0x0
   795                           
   796  0070                     ?_main:	
   797                           ; 1 bytes @ 0x0
   798                           
   799  0070                     ?_I2C_Master_Wait:	
   800                           ; 1 bytes @ 0x0
   801                           
   802  0070                     ?_I2C_Start:	
   803                           ; 1 bytes @ 0x0
   804                           
   805  0070                     ?_I2C_Read:	
   806                           ; 1 bytes @ 0x0
   807                           
   808  0070                     ?_writeChar:	
   809                           ; 1 bytes @ 0x0
   810                           
   811  0070                     ?_txfunc:	
   812                           ; 1 bytes @ 0x0
   813                           
   814  0070                     ?i1_I2C_Master_Wait:	
   815                           ; 1 bytes @ 0x0
   816                           
   817  0070                     ??i1_I2C_Master_Wait:	
   818                           ; 1 bytes @ 0x0
   819                           
   820  0070                     ?i1_I2C_Master_Stop:	
   821                           ; 1 bytes @ 0x0
   822                           
   823  0070                     ??i1_I2C_Master_Stop:	
   824                           ; 1 bytes @ 0x0
   825                           
   826  0070                     ?i1_I2C_Master_Write:	
   827                           ; 1 bytes @ 0x0
   828                           
   829  0070                     i1I2C_Master_Write@d:	
   830                           ; 1 bytes @ 0x0
   831                           
   832                           
   833                           ; 2 bytes @ 0x0
   834  0070                     	ds	2
   835  0072                     ?_I2C_Write:
   836  0072                     ??i1_I2C_Master_Write:	
   837                           ; 1 bytes @ 0x2
   838                           
   839  0072                     I2C_Write@data:	
   840                           ; 1 bytes @ 0x2
   841                           
   842                           
   843                           ; 1 bytes @ 0x2
   844  0072                     	ds	1
   845  0073                     ??_I2C_Write:
   846                           
   847                           ; 1 bytes @ 0x3
   848  0073                     	ds	2
   849  0075                     I2C_Write@address:
   850                           
   851                           ; 1 bytes @ 0x5
   852  0075                     	ds	1
   853  0076                     ??_isr:
   854                           
   855                           ; 1 bytes @ 0x6
   856  0076                     	ds	3
   857                           
   858                           	psect	cstackBANK0
   859  0020                     __pcstackBANK0:
   860  0020                     ?_I2C_Master_Write:
   861  0020                     ??_I2C_Master_Stop:	
   862                           ; 1 bytes @ 0x0
   863                           
   864  0020                     ??_I2C_ACK:	
   865                           ; 1 bytes @ 0x0
   866                           
   867  0020                     ??_I2C_NACK:	
   868                           ; 1 bytes @ 0x0
   869                           
   870  0020                     ??_setCmd:	
   871                           ; 1 bytes @ 0x0
   872                           
   873  0020                     ??_BAUDSelect:	
   874                           ; 1 bytes @ 0x0
   875                           
   876  0020                     ??_I2C_Master_Wait:	
   877                           ; 1 bytes @ 0x0
   878                           
   879  0020                     ??_I2C_Read:	
   880                           ; 1 bytes @ 0x0
   881                           
   882  0020                     ??_writeChar:	
   883                           ; 1 bytes @ 0x0
   884                           
   885  0020                     ??_txfunc:	
   886                           ; 1 bytes @ 0x0
   887                           
   888  0020                     ?__Umul8_16:	
   889                           ; 1 bytes @ 0x0
   890                           
   891  0020                     ?___wmul:	
   892                           ; 2 bytes @ 0x0
   893                           
   894  0020                     ?___awmod:	
   895                           ; 2 bytes @ 0x0
   896                           
   897  0020                     ?___lldiv:	
   898                           ; 2 bytes @ 0x0
   899                           
   900  0020                     ?___xxtofl:	
   901                           ; 4 bytes @ 0x0
   902                           
   903  0020                     txfunc@data:	
   904                           ; 4 bytes @ 0x0
   905                           
   906  0020                     __Umul8_16@multiplicand:	
   907                           ; 1 bytes @ 0x0
   908                           
   909  0020                     I2C_Master_Write@d:	
   910                           ; 1 bytes @ 0x0
   911                           
   912  0020                     ___wmul@multiplier:	
   913                           ; 2 bytes @ 0x0
   914                           
   915  0020                     ___awmod@divisor:	
   916                           ; 2 bytes @ 0x0
   917                           
   918  0020                     ___lldiv@divisor:	
   919                           ; 2 bytes @ 0x0
   920                           
   921  0020                     ___xxtofl@val:	
   922                           ; 4 bytes @ 0x0
   923                           
   924                           
   925                           ; 4 bytes @ 0x0
   926  0020                     	ds	1
   927  0021                     I2C_Read@ACK_NACK:
   928  0021                     writeChar@a:	
   929                           ; 1 bytes @ 0x1
   930                           
   931                           
   932                           ; 1 bytes @ 0x1
   933  0021                     	ds	1
   934  0022                     ??_writeString:
   935  0022                     ??_I2C_Master_Write:	
   936                           ; 1 bytes @ 0x2
   937                           
   938  0022                     ??__Umul8_16:	
   939                           ; 1 bytes @ 0x2
   940                           
   941  0022                     ??_I2C_Start:	
   942                           ; 1 bytes @ 0x2
   943                           
   944  0022                     I2C_Read@Data:	
   945                           ; 1 bytes @ 0x2
   946                           
   947  0022                     setCmd@a:	
   948                           ; 1 bytes @ 0x2
   949                           
   950  0022                     BAUDSelect@freq:	
   951                           ; 1 bytes @ 0x2
   952                           
   953  0022                     ___wmul@multiplicand:	
   954                           ; 1 bytes @ 0x2
   955                           
   956  0022                     ___awmod@dividend:	
   957                           ; 2 bytes @ 0x2
   958                           
   959                           
   960                           ; 2 bytes @ 0x2
   961  0022                     	ds	1
   962  0023                     ??_clearLCD:
   963  0023                     ?_setCursor:	
   964                           ; 1 bytes @ 0x3
   965                           
   966  0023                     ??_initLCD:	
   967                           ; 1 bytes @ 0x3
   968                           
   969  0023                     ??_initUART:	
   970                           ; 1 bytes @ 0x3
   971                           
   972  0023                     setCursor@y:	
   973                           ; 1 bytes @ 0x3
   974                           
   975  0023                     writeString@i:	
   976                           ; 1 bytes @ 0x3
   977                           
   978  0023                     initUART@freq:	
   979                           ; 1 bytes @ 0x3
   980                           
   981                           
   982                           ; 1 bytes @ 0x3
   983  0023                     	ds	1
   984  0024                     ??_setCursor:
   985  0024                     ??___wmul:	
   986                           ; 1 bytes @ 0x4
   987                           
   988  0024                     ??___awmod:	
   989                           ; 1 bytes @ 0x4
   990                           
   991  0024                     ??___xxtofl:	
   992                           ; 1 bytes @ 0x4
   993                           
   994  0024                     I2C_Start@add:	
   995                           ; 1 bytes @ 0x4
   996                           
   997  0024                     writeString@a:	
   998                           ; 1 bytes @ 0x4
   999                           
  1000  0024                     ___wmul@product:	
  1001                           ; 1 bytes @ 0x4
  1002                           
  1003  0024                     __Umul8_16@product:	
  1004                           ; 2 bytes @ 0x4
  1005                           
  1006  0024                     ___lldiv@dividend:	
  1007                           ; 2 bytes @ 0x4
  1008                           
  1009                           
  1010                           ; 4 bytes @ 0x4
  1011  0024                     	ds	1
  1012  0025                     setCursor@x:
  1013  0025                     ___awmod@counter:	
  1014                           ; 1 bytes @ 0x5
  1015                           
  1016                           
  1017                           ; 1 bytes @ 0x5
  1018  0025                     	ds	1
  1019  0026                     setCursor@a:
  1020  0026                     ___awmod@sign:	
  1021                           ; 1 bytes @ 0x6
  1022                           
  1023  0026                     __Umul8_16@word_mpld:	
  1024                           ; 1 bytes @ 0x6
  1025                           
  1026                           
  1027                           ; 2 bytes @ 0x6
  1028  0026                     	ds	1
  1029  0027                     ?___awdiv:
  1030  0027                     ___awdiv@divisor:	
  1031                           ; 2 bytes @ 0x7
  1032                           
  1033                           
  1034                           ; 2 bytes @ 0x7
  1035  0027                     	ds	1
  1036  0028                     ??___lldiv:
  1037  0028                     __Umul8_16@multiplier:	
  1038                           ; 1 bytes @ 0x8
  1039                           
  1040  0028                     ___xxtofl@sign:	
  1041                           ; 1 bytes @ 0x8
  1042                           
  1043                           
  1044                           ; 1 bytes @ 0x8
  1045  0028                     	ds	1
  1046  0029                     ___xxtofl@exp:
  1047  0029                     ___awdiv@dividend:	
  1048                           ; 1 bytes @ 0x9
  1049                           
  1050  0029                     ___lldiv@quotient:	
  1051                           ; 2 bytes @ 0x9
  1052                           
  1053                           
  1054                           ; 4 bytes @ 0x9
  1055  0029                     	ds	1
  1056  002A                     ___xxtofl@arg:
  1057                           
  1058                           ; 4 bytes @ 0xA
  1059  002A                     	ds	1
  1060  002B                     ??___awdiv:
  1061                           
  1062                           ; 1 bytes @ 0xB
  1063  002B                     	ds	1
  1064  002C                     ___awdiv@counter:
  1065                           
  1066                           ; 1 bytes @ 0xC
  1067  002C                     	ds	1
  1068  002D                     ___lldiv@counter:
  1069  002D                     ___awdiv@sign:	
  1070                           ; 1 bytes @ 0xD
  1071                           
  1072                           
  1073                           ; 1 bytes @ 0xD
  1074  002D                     	ds	1
  1075  002E                     ?_I2C_Master_Init:
  1076  002E                     ?___fldiv:	
  1077                           ; 1 bytes @ 0xE
  1078                           
  1079  002E                     ___awdiv@quotient:	
  1080                           ; 4 bytes @ 0xE
  1081                           
  1082  002E                     I2C_Master_Init@c:	
  1083                           ; 2 bytes @ 0xE
  1084                           
  1085  002E                     ___fldiv@a:	
  1086                           ; 4 bytes @ 0xE
  1087                           
  1088                           
  1089                           ; 4 bytes @ 0xE
  1090  002E                     	ds	2
  1091  0030                     ?_Temp_Conversion:
  1092  0030                     Temp_Conversion@_temp:	
  1093                           ; 1 bytes @ 0x10
  1094                           
  1095                           
  1096                           ; 2 bytes @ 0x10
  1097  0030                     	ds	2
  1098  0032                     ??_Temp_Conversion:
  1099  0032                     ??_I2C_Master_Init:	
  1100                           ; 1 bytes @ 0x12
  1101                           
  1102  0032                     ___fldiv@b:	
  1103                           ; 1 bytes @ 0x12
  1104                           
  1105                           
  1106                           ; 4 bytes @ 0x12
  1107  0032                     	ds	2
  1108  0034                     Temp_Conversion@_temp_tens:
  1109                           
  1110                           ; 2 bytes @ 0x14
  1111  0034                     	ds	2
  1112  0036                     ??_MPU6050_Init:
  1113  0036                     ??___fldiv:	
  1114                           ; 1 bytes @ 0x16
  1115                           
  1116  0036                     Temp_Conversion@_temp_units:	
  1117                           ; 1 bytes @ 0x16
  1118                           
  1119                           
  1120                           ; 2 bytes @ 0x16
  1121  0036                     	ds	2
  1122  0038                     Temp_Conversion@_write_tenths:
  1123                           
  1124                           ; 2 bytes @ 0x18
  1125  0038                     	ds	1
  1126  0039                     ??_setup:
  1127                           
  1128                           ; 1 bytes @ 0x19
  1129  0039                     	ds	1
  1130  003A                     Temp_Conversion@_write_units:
  1131                           
  1132                           ; 2 bytes @ 0x1A
  1133  003A                     	ds	1
  1134  003B                     ___fldiv@rem:
  1135                           
  1136                           ; 4 bytes @ 0x1B
  1137  003B                     	ds	1
  1138  003C                     Temp_Conversion@_write_tens:
  1139                           
  1140                           ; 2 bytes @ 0x1C
  1141  003C                     	ds	2
  1142  003E                     Temp_Conversion@_temp_tenths:
  1143                           
  1144                           ; 2 bytes @ 0x1E
  1145  003E                     	ds	1
  1146  003F                     ___fldiv@sign:
  1147                           
  1148                           ; 1 bytes @ 0x1F
  1149  003F                     	ds	1
  1150  0040                     ___fldiv@new_exp:
  1151                           
  1152                           ; 2 bytes @ 0x20
  1153  0040                     	ds	2
  1154  0042                     ___fldiv@grs:
  1155                           
  1156                           ; 4 bytes @ 0x22
  1157  0042                     	ds	4
  1158  0046                     ___fldiv@bexp:
  1159                           
  1160                           ; 1 bytes @ 0x26
  1161  0046                     	ds	1
  1162  0047                     ___fldiv@aexp:
  1163                           
  1164                           ; 1 bytes @ 0x27
  1165  0047                     	ds	1
  1166  0048                     ?___fladd:
  1167  0048                     ___fladd@b:	
  1168                           ; 4 bytes @ 0x28
  1169                           
  1170                           
  1171                           ; 4 bytes @ 0x28
  1172  0048                     	ds	4
  1173  004C                     ___fladd@a:
  1174                           
  1175                           ; 4 bytes @ 0x2C
  1176  004C                     	ds	4
  1177  0050                     ??___fladd:
  1178                           
  1179                           ; 1 bytes @ 0x30
  1180  0050                     	ds	8
  1181  0058                     ___fladd@signs:
  1182                           
  1183                           ; 1 bytes @ 0x38
  1184  0058                     	ds	1
  1185  0059                     ___fladd@aexp:
  1186                           
  1187                           ; 1 bytes @ 0x39
  1188  0059                     	ds	1
  1189  005A                     ___fladd@bexp:
  1190                           
  1191                           ; 1 bytes @ 0x3A
  1192  005A                     	ds	1
  1193  005B                     ___fladd@grs:
  1194                           
  1195                           ; 1 bytes @ 0x3B
  1196  005B                     	ds	1
  1197  005C                     ?___flmul:
  1198  005C                     ___flmul@b:	
  1199                           ; 4 bytes @ 0x3C
  1200                           
  1201                           
  1202                           ; 4 bytes @ 0x3C
  1203  005C                     	ds	4
  1204  0060                     ___flmul@a:
  1205                           
  1206                           ; 4 bytes @ 0x40
  1207  0060                     	ds	4
  1208  0064                     ??___flmul:
  1209                           
  1210                           ; 1 bytes @ 0x44
  1211  0064                     	ds	5
  1212  0069                     ?___fltol:
  1213  0069                     ___fltol@f1:	
  1214                           ; 4 bytes @ 0x49
  1215                           
  1216                           
  1217                           ; 4 bytes @ 0x49
  1218  0069                     	ds	4
  1219  006D                     ___fltol@sign1:
  1220                           
  1221                           ; 1 bytes @ 0x4D
  1222  006D                     	ds	1
  1223  006E                     ___fltol@exp1:
  1224                           
  1225                           ; 1 bytes @ 0x4E
  1226  006E                     	ds	1
  1227                           
  1228                           	psect	maintext
  1229  085D                     __pmaintext:	
  1230 ;;
  1231 ;;Main: autosize = 0, tempsize = 3, incstack = 0, save=0
  1232 ;;
  1233 ;; *************** function _main *****************
  1234 ;; Defined at:
  1235 ;;		line 78 in file "D:/UVG-IngenieriaElectronica/5to-Semestre/Electronica-Digital-2/mini-02/master.X/master.c"
  1236 ;; Parameters:    Size  Location     Type
  1237 ;;		None
  1238 ;; Auto vars:     Size  Location     Type
  1239 ;;		None
  1240 ;; Return value:  Size  Location     Type
  1241 ;;                  1    wreg      void 
  1242 ;; Registers used:
  1243 ;;		wreg, fsr0l, fsr0h, status,2, status,0, btemp+1, pclath, cstack
  1244 ;; Tracked objects:
  1245 ;;		On entry : B00/0
  1246 ;;		On exit  : 0/0
  1247 ;;		Unchanged: 0/0
  1248 ;; Data sizes:     COMMON   BANK0   BANK1   BANK3   BANK2
  1249 ;;      Params:         0       0       0       0       0
  1250 ;;      Locals:         0       0       0       0       0
  1251 ;;      Temps:          0       0       3       0       0
  1252 ;;      Totals:         0       0       3       0       0
  1253 ;;Total ram usage:        3 bytes
  1254 ;; Hardware stack levels required when called: 9
  1255 ;; This function calls:
  1256 ;;		_MPU6050_Read
  1257 ;;		_clearLCD
  1258 ;;		_setCursor
  1259 ;;		_setup
  1260 ;;		_writeString
  1261 ;; This function is called by:
  1262 ;;		Startup code after reset
  1263 ;; This function uses a non-reentrant model
  1264 ;;
  1265                           
  1266                           
  1267                           ;psect for function _main
  1268  085D                     _main:
  1269  085D                     l2986:	
  1270                           ;incstack = 0
  1271 ;; hardware stack exceeded
  1272                           ; Regs used in _main: [wreg-fsr0h+status,2+status,0+btemp+1+pclath+cstack]
  1273                           
  1274                           
  1275                           ;D:/UVG-IngenieriaElectronica/5to-Semestre/Electronica-Digital-2/mini-02/master.X/master
      +                          .c: 79:     setup();
  1276  085D  160A  118A  2744  120A  158A  	fcall	_setup
  1277  0862                     l2988:
  1278                           
  1279                           ;D:/UVG-IngenieriaElectronica/5to-Semestre/Electronica-Digital-2/mini-02/master.X/master
      +                          .c: 83:     clearLCD();
  1280  0862  160A  118A  25E3  120A  158A  	fcall	_clearLCD
  1281  0867                     l2990:
  1282                           
  1283                           ;D:/UVG-IngenieriaElectronica/5to-Semestre/Electronica-Digital-2/mini-02/master.X/master
      +                          .c: 86:         MPU6050_Read();
  1284  0867  120A  158A  244C  120A  158A  	fcall	_MPU6050_Read
  1285  086C                     l2992:
  1286                           
  1287                           ;D:/UVG-IngenieriaElectronica/5to-Semestre/Electronica-Digital-2/mini-02/master.X/master
      +                          .c: 88:         setCursor(1,1);
  1288  086C  1283               	bcf	3,5	;RP0=0, select bank0
  1289  086D  1303               	bcf	3,6	;RP1=0, select bank0
  1290  086E  01A3               	clrf	setCursor@y
  1291  086F  0AA3               	incf	setCursor@y,f
  1292  0870  3001               	movlw	1
  1293  0871  160A  118A  267F  120A  158A  	fcall	_setCursor
  1294  0876                     l2994:
  1295                           
  1296                           ;D:/UVG-IngenieriaElectronica/5to-Semestre/Electronica-Digital-2/mini-02/master.X/master
      +                          .c: 89:         writeString("SEMF: ");
  1297  0876  3024               	movlw	(low ((STR_1-__stringbase)| (0+32768)))& (0+255)
  1298  0877  160A  118A  26A5  120A  158A  	fcall	_writeString
  1299  087C                     l2996:
  1300                           
  1301                           ;D:/UVG-IngenieriaElectronica/5to-Semestre/Electronica-Digital-2/mini-02/master.X/master
      +                          .c: 90:         if (_lights == 0) {
  1302  087C  087A               	movf	__lights,w
  1303  087D  1D03               	btfss	3,2
  1304  087E  2880               	goto	u3691
  1305  087F  2881               	goto	u3690
  1306  0880                     u3691:
  1307  0880  2888               	goto	l3000
  1308  0881                     u3690:
  1309  0881                     l2998:
  1310                           
  1311                           ;D:/UVG-IngenieriaElectronica/5to-Semestre/Electronica-Digital-2/mini-02/master.X/master
      +                          .c: 91:             writeString("OFF   ");
  1312  0881  300F               	movlw	(low ((STR_2-__stringbase)| (0+32768)))& (0+255)
  1313  0882  160A  118A  26A5  120A  158A  	fcall	_writeString
  1314                           
  1315                           ;D:/UVG-IngenieriaElectronica/5to-Semestre/Electronica-Digital-2/mini-02/master.X/master
      +                          .c: 92:         } else if (_lights == 1) {
  1316  0887  28AE               	goto	l3012
  1317  0888                     l3000:
  1318  0888  037A               	decf	__lights,w
  1319  0889  1D03               	btfss	3,2
  1320  088A  288C               	goto	u3701
  1321  088B  288D               	goto	u3700
  1322  088C                     u3701:
  1323  088C  2894               	goto	l3004
  1324  088D                     u3700:
  1325  088D                     l3002:
  1326                           
  1327                           ;D:/UVG-IngenieriaElectronica/5to-Semestre/Electronica-Digital-2/mini-02/master.X/master
      +                          .c: 93:             writeString("RED   ");
  1328  088D  3008               	movlw	(low ((STR_3-__stringbase)| (0+32768)))& (0+255)
  1329  088E  160A  118A  26A5  120A  158A  	fcall	_writeString
  1330                           
  1331                           ;D:/UVG-IngenieriaElectronica/5to-Semestre/Electronica-Digital-2/mini-02/master.X/master
      +                          .c: 94:         } else if (_lights == 2) {
  1332  0893  28AE               	goto	l3012
  1333  0894                     l3004:
  1334  0894  3002               	movlw	2
  1335  0895  067A               	xorwf	__lights,w
  1336  0896  1D03               	btfss	3,2
  1337  0897  2899               	goto	u3711
  1338  0898  289A               	goto	u3710
  1339  0899                     u3711:
  1340  0899  28A1               	goto	l3008
  1341  089A                     u3710:
  1342  089A                     l3006:
  1343                           
  1344                           ;D:/UVG-IngenieriaElectronica/5to-Semestre/Electronica-Digital-2/mini-02/master.X/master
      +                          .c: 95:             writeString("YLW   ");
  1345  089A  301D               	movlw	(low ((STR_4-__stringbase)| (0+32768)))& (0+255)
  1346  089B  160A  118A  26A5  120A  158A  	fcall	_writeString
  1347                           
  1348                           ;D:/UVG-IngenieriaElectronica/5to-Semestre/Electronica-Digital-2/mini-02/master.X/master
      +                          .c: 96:         } else if (_lights == 3) {
  1349  08A0  28AE               	goto	l3012
  1350  08A1                     l3008:
  1351  08A1  3003               	movlw	3
  1352  08A2  067A               	xorwf	__lights,w
  1353  08A3  1D03               	btfss	3,2
  1354  08A4  28A6               	goto	u3721
  1355  08A5  28A7               	goto	u3720
  1356  08A6                     u3721:
  1357  08A6  28AE               	goto	l71
  1358  08A7                     u3720:
  1359  08A7                     l3010:
  1360                           
  1361                           ;D:/UVG-IngenieriaElectronica/5to-Semestre/Electronica-Digital-2/mini-02/master.X/master
      +                          .c: 97:             writeString("GRN   ");
  1362  08A7  3016               	movlw	(low ((STR_5-__stringbase)| (0+32768)))& (0+255)
  1363  08A8  160A  118A  26A5  120A  158A  	fcall	_writeString
  1364  08AD  28AE               	goto	l3012
  1365  08AE                     l71:
  1366  08AE                     l3012:
  1367                           
  1368                           ;D:/UVG-IngenieriaElectronica/5to-Semestre/Electronica-Digital-2/mini-02/master.X/master
      +                          .c: 99:         _delay((unsigned long)((1000)*(8000000/4000.0)));
  1369  08AE  300B               	movlw	11
  1370  08AF  1683               	bsf	3,5	;RP0=1, select bank1
  1371  08B0  1303               	bcf	3,6	;RP1=0, select bank1
  1372  08B1  00BC               	movwf	(??_main^(0+128)+2)
  1373  08B2  3026               	movlw	38
  1374  08B3  00BB               	movwf	(??_main^(0+128)+1)
  1375  08B4  305D               	movlw	93
  1376  08B5  00BA               	movwf	??_main^(0+128)
  1377  08B6                     u3757:
  1378  08B6  0BBA               	decfsz	??_main^(0+128),f
  1379  08B7  28B6               	goto	u3757
  1380  08B8  0BBB               	decfsz	(??_main^(0+128)+1),f
  1381  08B9  28B6               	goto	u3757
  1382  08BA  0BBC               	decfsz	(??_main^(0+128)+2),f
  1383  08BB  28B6               	goto	u3757
  1384  08BC  2867               	goto	l2990
  1385  08BD  120A  118A  280C   	ljmp	start
  1386  08C0                     __end_of_main:
  1387                           
  1388                           	psect	text1
  1389  1744                     __ptext1:	
  1390 ;; *************** function _setup *****************
  1391 ;; Defined at:
  1392 ;;		line 106 in file "D:/UVG-IngenieriaElectronica/5to-Semestre/Electronica-Digital-2/mini-02/master.X/master.c"
  1393 ;; Parameters:    Size  Location     Type
  1394 ;;		None
  1395 ;; Auto vars:     Size  Location     Type
  1396 ;;		None
  1397 ;; Return value:  Size  Location     Type
  1398 ;;                  1    wreg      void 
  1399 ;; Registers used:
  1400 ;;		wreg, fsr0l, fsr0h, status,2, status,0, pclath, cstack
  1401 ;; Tracked objects:
  1402 ;;		On entry : 0/0
  1403 ;;		On exit  : 0/0
  1404 ;;		Unchanged: 0/0
  1405 ;; Data sizes:     COMMON   BANK0   BANK1   BANK3   BANK2
  1406 ;;      Params:         0       0       0       0       0
  1407 ;;      Locals:         0       0       0       0       0
  1408 ;;      Temps:          0       0       0       0       0
  1409 ;;      Totals:         0       0       0       0       0
  1410 ;;Total ram usage:        0 bytes
  1411 ;; Hardware stack levels used: 1
  1412 ;; Hardware stack levels required when called: 8
  1413 ;; This function calls:
  1414 ;;		_MPU6050_Init
  1415 ;;		_initLCD
  1416 ;;		_initUART
  1417 ;; This function is called by:
  1418 ;;		_main
  1419 ;; This function uses a non-reentrant model
  1420 ;;
  1421                           
  1422                           
  1423                           ;psect for function _setup
  1424  1744                     _setup:
  1425  1744                     l2920:	
  1426                           ;incstack = 0
  1427 ;; hardware stack exceeded
  1428                           ; Regs used in _setup: [wreg-fsr0h+status,2+status,0+pclath+cstack]
  1429                           
  1430                           
  1431                           ;D:/UVG-IngenieriaElectronica/5to-Semestre/Electronica-Digital-2/mini-02/master.X/master
      +                          .c: 111:     ANSEL = 0;
  1432  1744  1683               	bsf	3,5	;RP0=1, select bank3
  1433  1745  1703               	bsf	3,6	;RP1=1, select bank3
  1434  1746  0188               	clrf	8	;volatile
  1435                           
  1436                           ;D:/UVG-IngenieriaElectronica/5to-Semestre/Electronica-Digital-2/mini-02/master.X/master
      +                          .c: 112:     ANSELH = 0;
  1437  1747  0189               	clrf	9	;volatile
  1438                           
  1439                           ;D:/UVG-IngenieriaElectronica/5to-Semestre/Electronica-Digital-2/mini-02/master.X/master
      +                          .c: 114:     TRISA = 0;
  1440  1748  1683               	bsf	3,5	;RP0=1, select bank1
  1441  1749  1303               	bcf	3,6	;RP1=0, select bank1
  1442  174A  0185               	clrf	5	;volatile
  1443  174B                     l2922:
  1444                           
  1445                           ;D:/UVG-IngenieriaElectronica/5to-Semestre/Electronica-Digital-2/mini-02/master.X/master
      +                          .c: 115:     TRISBbits.TRISB0 = 0;
  1446  174B  1006               	bcf	6,0	;volatile
  1447  174C                     l2924:
  1448                           
  1449                           ;D:/UVG-IngenieriaElectronica/5to-Semestre/Electronica-Digital-2/mini-02/master.X/master
      +                          .c: 116:     TRISBbits.TRISB1 = 0;
  1450  174C  1086               	bcf	6,1	;volatile
  1451                           
  1452                           ;D:/UVG-IngenieriaElectronica/5to-Semestre/Electronica-Digital-2/mini-02/master.X/master
      +                          .c: 117:     TRISD = 0x00;
  1453  174D  0188               	clrf	8	;volatile
  1454                           
  1455                           ;D:/UVG-IngenieriaElectronica/5to-Semestre/Electronica-Digital-2/mini-02/master.X/master
      +                          .c: 119:     PORTA = 0;
  1456  174E  1283               	bcf	3,5	;RP0=0, select bank0
  1457  174F  1303               	bcf	3,6	;RP1=0, select bank0
  1458  1750  0185               	clrf	5	;volatile
  1459  1751                     l2926:
  1460                           
  1461                           ;D:/UVG-IngenieriaElectronica/5to-Semestre/Electronica-Digital-2/mini-02/master.X/master
      +                          .c: 124:     OSCCONbits.IRCF = 0b111;
  1462  1751  3070               	movlw	112
  1463  1752  1683               	bsf	3,5	;RP0=1, select bank1
  1464  1753  1303               	bcf	3,6	;RP1=0, select bank1
  1465  1754  048F               	iorwf	15,f	;volatile
  1466  1755                     l2928:
  1467                           
  1468                           ;D:/UVG-IngenieriaElectronica/5to-Semestre/Electronica-Digital-2/mini-02/master.X/master
      +                          .c: 125:     OSCCONbits.SCS = 1;
  1469  1755  140F               	bsf	15,0	;volatile
  1470  1756                     l2930:
  1471                           
  1472                           ;D:/UVG-IngenieriaElectronica/5to-Semestre/Electronica-Digital-2/mini-02/master.X/master
      +                          .c: 130:     INTCONbits.GIE = 1;
  1473  1756  178B               	bsf	11,7	;volatile
  1474  1757                     l2932:
  1475                           
  1476                           ;D:/UVG-IngenieriaElectronica/5to-Semestre/Electronica-Digital-2/mini-02/master.X/master
      +                          .c: 131:     INTCONbits.PEIE = 1;
  1477  1757  170B               	bsf	11,6	;volatile
  1478  1758                     l2934:
  1479                           
  1480                           ;D:/UVG-IngenieriaElectronica/5to-Semestre/Electronica-Digital-2/mini-02/master.X/master
      +                          .c: 132:     PIE1bits.RCIE = 1;
  1481  1758  168C               	bsf	12,5	;volatile
  1482  1759                     l2936:
  1483                           
  1484                           ;D:/UVG-IngenieriaElectronica/5to-Semestre/Electronica-Digital-2/mini-02/master.X/master
      +                          .c: 133:     PIR1bits.RCIF = 0;
  1485  1759  1283               	bcf	3,5	;RP0=0, select bank0
  1486  175A  1303               	bcf	3,6	;RP1=0, select bank0
  1487  175B  128C               	bcf	12,5	;volatile
  1488  175C                     l2938:
  1489                           
  1490                           ;D:/UVG-IngenieriaElectronica/5to-Semestre/Electronica-Digital-2/mini-02/master.X/master
      +                          .c: 138:     initLCD();
  1491  175C  120A  158A  20C0  160A  118A  	fcall	_initLCD
  1492  1761                     l2940:
  1493                           
  1494                           ;D:/UVG-IngenieriaElectronica/5to-Semestre/Electronica-Digital-2/mini-02/master.X/master
      +                          .c: 139:     initUART(8);
  1495  1761  3008               	movlw	8
  1496  1762  160A  118A  2640  160A  118A  	fcall	_initUART
  1497  1767                     l2942:
  1498                           
  1499                           ;D:/UVG-IngenieriaElectronica/5to-Semestre/Electronica-Digital-2/mini-02/master.X/master
      +                          .c: 140:     MPU6050_Init();
  1500  1767  120A  158A  2369  160A  118A  	fcall	_MPU6050_Init
  1501  176C                     l80:
  1502  176C  0008               	return
  1503  176D                     __end_of_setup:
  1504                           
  1505                           	psect	text2
  1506  1640                     __ptext2:	
  1507 ;; *************** function _initUART *****************
  1508 ;; Defined at:
  1509 ;;		line 3 in file "D:/UVG-IngenieriaElectronica/5to-Semestre/Electronica-Digital-2/mini-02/master.X/_UART.c"
  1510 ;; Parameters:    Size  Location     Type
  1511 ;;  freq            1    wreg     unsigned char 
  1512 ;; Auto vars:     Size  Location     Type
  1513 ;;  freq            1    3[BANK0 ] unsigned char 
  1514 ;; Return value:  Size  Location     Type
  1515 ;;                  1    wreg      void 
  1516 ;; Registers used:
  1517 ;;		wreg, fsr0l, fsr0h, status,2, status,0, pclath, cstack
  1518 ;; Tracked objects:
  1519 ;;		On entry : 0/0
  1520 ;;		On exit  : 0/0
  1521 ;;		Unchanged: 0/0
  1522 ;; Data sizes:     COMMON   BANK0   BANK1   BANK3   BANK2
  1523 ;;      Params:         0       0       0       0       0
  1524 ;;      Locals:         0       1       0       0       0
  1525 ;;      Temps:          0       0       0       0       0
  1526 ;;      Totals:         0       1       0       0       0
  1527 ;;Total ram usage:        1 bytes
  1528 ;; Hardware stack levels used: 1
  1529 ;; Hardware stack levels required when called: 5
  1530 ;; This function calls:
  1531 ;;		_BAUDSelect
  1532 ;; This function is called by:
  1533 ;;		_setup
  1534 ;; This function uses a non-reentrant model
  1535 ;;
  1536                           
  1537                           
  1538                           ;psect for function _initUART
  1539  1640                     _initUART:
  1540                           
  1541                           ;incstack = 0
  1542                           ; Regs used in _initUART: [wreg-fsr0h+status,2+status,0+pclath+cstack]
  1543                           ;initUART@freq stored from wreg
  1544  1640  1283               	bcf	3,5	;RP0=0, select bank0
  1545  1641  1303               	bcf	3,6	;RP1=0, select bank0
  1546  1642  00A3               	movwf	initUART@freq
  1547  1643                     l2248:
  1548                           
  1549                           ;D:/UVG-IngenieriaElectronica/5to-Semestre/Electronica-Digital-2/mini-02/master.X/_UART.
      +                          c: 5:     TXSTAbits.SYNC = 0;
  1550  1643  1683               	bsf	3,5	;RP0=1, select bank1
  1551  1644  1303               	bcf	3,6	;RP1=0, select bank1
  1552  1645  1218               	bcf	24,4	;volatile
  1553  1646                     l2250:
  1554                           
  1555                           ;D:/UVG-IngenieriaElectronica/5to-Semestre/Electronica-Digital-2/mini-02/master.X/_UART.
      +                          c: 6:     BAUDSelect (freq);
  1556  1646  1283               	bcf	3,5	;RP0=0, select bank0
  1557  1647  1303               	bcf	3,6	;RP1=0, select bank0
  1558  1648  0823               	movf	initUART@freq,w
  1559  1649  160A  118A  276D  160A  118A  	fcall	_BAUDSelect
  1560  164E                     l2252:
  1561                           
  1562                           ;D:/UVG-IngenieriaElectronica/5to-Semestre/Electronica-Digital-2/mini-02/master.X/_UART.
      +                          c: 7:     RCSTAbits.SPEN = 1;
  1563  164E  1283               	bcf	3,5	;RP0=0, select bank0
  1564  164F  1303               	bcf	3,6	;RP1=0, select bank0
  1565  1650  1798               	bsf	24,7	;volatile
  1566  1651                     l2254:
  1567                           
  1568                           ;D:/UVG-IngenieriaElectronica/5to-Semestre/Electronica-Digital-2/mini-02/master.X/_UART.
      +                          c: 9:     TXSTAbits.TX9 = 0;
  1569  1651  1683               	bsf	3,5	;RP0=1, select bank1
  1570  1652  1303               	bcf	3,6	;RP1=0, select bank1
  1571  1653  1318               	bcf	24,6	;volatile
  1572  1654                     l2256:
  1573                           
  1574                           ;D:/UVG-IngenieriaElectronica/5to-Semestre/Electronica-Digital-2/mini-02/master.X/_UART.
      +                          c: 10:     TXSTAbits.TXEN = 1;
  1575  1654  1698               	bsf	24,5	;volatile
  1576  1655                     l2258:
  1577                           
  1578                           ;D:/UVG-IngenieriaElectronica/5to-Semestre/Electronica-Digital-2/mini-02/master.X/_UART.
      +                          c: 11:     PIR1bits.TXIF = 1;
  1579  1655  1283               	bcf	3,5	;RP0=0, select bank0
  1580  1656  1303               	bcf	3,6	;RP1=0, select bank0
  1581  1657  160C               	bsf	12,4	;volatile
  1582  1658                     l2260:
  1583                           
  1584                           ;D:/UVG-IngenieriaElectronica/5to-Semestre/Electronica-Digital-2/mini-02/master.X/_UART.
      +                          c: 13:     RCSTAbits.RX9 = 0;
  1585  1658  1318               	bcf	24,6	;volatile
  1586  1659                     l2262:
  1587                           
  1588                           ;D:/UVG-IngenieriaElectronica/5to-Semestre/Electronica-Digital-2/mini-02/master.X/_UART.
      +                          c: 14:     RCSTAbits.CREN = 1;
  1589  1659  1618               	bsf	24,4	;volatile
  1590  165A                     l2264:
  1591                           
  1592                           ;D:/UVG-IngenieriaElectronica/5to-Semestre/Electronica-Digital-2/mini-02/master.X/_UART.
      +                          c: 15:     PIR1bits.TXIF = 1;
  1593  165A  160C               	bsf	12,4	;volatile
  1594  165B                     l230:
  1595  165B  0008               	return
  1596  165C                     __end_of_initUART:
  1597                           
  1598                           	psect	text3
  1599  176D                     __ptext3:	
  1600 ;; *************** function _BAUDSelect *****************
  1601 ;; Defined at:
  1602 ;;		line 18 in file "D:/UVG-IngenieriaElectronica/5to-Semestre/Electronica-Digital-2/mini-02/master.X/_UART.c"
  1603 ;; Parameters:    Size  Location     Type
  1604 ;;  freq            1    wreg     unsigned char 
  1605 ;; Auto vars:     Size  Location     Type
  1606 ;;  freq            1    2[BANK0 ] unsigned char 
  1607 ;; Return value:  Size  Location     Type
  1608 ;;                  1    wreg      void 
  1609 ;; Registers used:
  1610 ;;		wreg, fsr0l, fsr0h, status,2, status,0
  1611 ;; Tracked objects:
  1612 ;;		On entry : 0/0
  1613 ;;		On exit  : 0/0
  1614 ;;		Unchanged: 0/0
  1615 ;; Data sizes:     COMMON   BANK0   BANK1   BANK3   BANK2
  1616 ;;      Params:         0       0       0       0       0
  1617 ;;      Locals:         0       1       0       0       0
  1618 ;;      Temps:          0       2       0       0       0
  1619 ;;      Totals:         0       3       0       0       0
  1620 ;;Total ram usage:        3 bytes
  1621 ;; Hardware stack levels used: 1
  1622 ;; Hardware stack levels required when called: 4
  1623 ;; This function calls:
  1624 ;;		Nothing
  1625 ;; This function is called by:
  1626 ;;		_initUART
  1627 ;; This function uses a non-reentrant model
  1628 ;;
  1629                           
  1630                           
  1631                           ;psect for function _BAUDSelect
  1632  176D                     _BAUDSelect:
  1633                           
  1634                           ;incstack = 0
  1635                           ; Regs used in _BAUDSelect: [wreg-fsr0h+status,2+status,0]
  1636                           ;BAUDSelect@freq stored from wreg
  1637  176D  1283               	bcf	3,5	;RP0=0, select bank0
  1638  176E  1303               	bcf	3,6	;RP1=0, select bank0
  1639  176F  00A2               	movwf	BAUDSelect@freq
  1640  1770                     l2072:
  1641                           
  1642                           ;D:/UVG-IngenieriaElectronica/5to-Semestre/Electronica-Digital-2/mini-02/master.X/_UART.
      +                          c: 19:     switch(freq) {
  1643  1770  2F88               	goto	l2084
  1644  1771                     l234:	
  1645                           ;D:/UVG-IngenieriaElectronica/5to-Semestre/Electronica-Digital-2/mini-02/master.X/_UART.
      +                          c: 20:         case 4:
  1646                           
  1647                           
  1648                           ;D:/UVG-IngenieriaElectronica/5to-Semestre/Electronica-Digital-2/mini-02/master.X/_UART.
      +                          c: 21:             TXSTAbits.BRGH = 1;
  1649  1771  1683               	bsf	3,5	;RP0=1, select bank1
  1650  1772  1303               	bcf	3,6	;RP1=0, select bank1
  1651  1773  1518               	bsf	24,2	;volatile
  1652                           
  1653                           ;D:/UVG-IngenieriaElectronica/5to-Semestre/Electronica-Digital-2/mini-02/master.X/_UART.
      +                          c: 22:             BAUDCTLbits.BRG16 = 1;
  1654  1774  1683               	bsf	3,5	;RP0=1, select bank3
  1655  1775  1703               	bsf	3,6	;RP1=1, select bank3
  1656  1776  1587               	bsf	7,3	;volatile
  1657  1777                     l2074:
  1658                           
  1659                           ;D:/UVG-IngenieriaElectronica/5to-Semestre/Electronica-Digital-2/mini-02/master.X/_UART.
      +                          c: 23:             SPBRG = 103;
  1660  1777  3067               	movlw	103
  1661  1778  1683               	bsf	3,5	;RP0=1, select bank1
  1662  1779  1303               	bcf	3,6	;RP1=0, select bank1
  1663  177A  0099               	movwf	25	;volatile
  1664  177B                     l2076:
  1665                           
  1666                           ;D:/UVG-IngenieriaElectronica/5to-Semestre/Electronica-Digital-2/mini-02/master.X/_UART.
      +                          c: 24:             SPBRGH = 0;
  1667  177B  019A               	clrf	26	;volatile
  1668                           
  1669                           ;D:/UVG-IngenieriaElectronica/5to-Semestre/Electronica-Digital-2/mini-02/master.X/_UART.
      +                          c: 25:             break;
  1670  177C  2F98               	goto	l238
  1671  177D                     l236:	
  1672                           ;D:/UVG-IngenieriaElectronica/5to-Semestre/Electronica-Digital-2/mini-02/master.X/_UART.
      +                          c: 26:         case 8:
  1673                           
  1674                           
  1675                           ;D:/UVG-IngenieriaElectronica/5to-Semestre/Electronica-Digital-2/mini-02/master.X/_UART.
      +                          c: 27:             TXSTAbits.BRGH = 0;
  1676  177D  1683               	bsf	3,5	;RP0=1, select bank1
  1677  177E  1303               	bcf	3,6	;RP1=0, select bank1
  1678  177F  1118               	bcf	24,2	;volatile
  1679                           
  1680                           ;D:/UVG-IngenieriaElectronica/5to-Semestre/Electronica-Digital-2/mini-02/master.X/_UART.
      +                          c: 28:             BAUDCTLbits.BRG16 = 0;
  1681  1780  1683               	bsf	3,5	;RP0=1, select bank3
  1682  1781  1703               	bsf	3,6	;RP1=1, select bank3
  1683  1782  1187               	bcf	7,3	;volatile
  1684  1783                     l2078:
  1685                           
  1686                           ;D:/UVG-IngenieriaElectronica/5to-Semestre/Electronica-Digital-2/mini-02/master.X/_UART.
      +                          c: 29:             SPBRG = 12;
  1687  1783  300C               	movlw	12
  1688  1784  1683               	bsf	3,5	;RP0=1, select bank1
  1689  1785  1303               	bcf	3,6	;RP1=0, select bank1
  1690  1786  0099               	movwf	25	;volatile
  1691  1787  2F7B               	goto	l2076
  1692  1788                     l2084:
  1693  1788  0822               	movf	BAUDSelect@freq,w
  1694  1789  00A0               	movwf	??_BAUDSelect
  1695  178A  01A1               	clrf	??_BAUDSelect+1
  1696                           
  1697                           ; Switch on 2 bytes has been partitioned into a top level switch of size 1, and 1 sub-sw
      +                          itches
  1698                           ; Switch size 1, requested type "simple"
  1699                           ; Number of cases is 1, Range of values is 0 to 0
  1700                           ; switch strategies available:
  1701                           ; Name         Instructions Cycles
  1702                           ; simple_byte            4     3 (average)
  1703                           ; direct_byte           11     8 (fixed)
  1704                           ; jumptable            260     6 (fixed)
  1705                           ;	Chosen strategy is simple_byte
  1706  178B  0821               	movf	??_BAUDSelect+1,w
  1707  178C  3A00               	xorlw	0	; case 0
  1708  178D  1903               	skipnz
  1709  178E  2F90               	goto	l3086
  1710  178F  2F98               	goto	l238
  1711  1790                     l3086:
  1712                           
  1713                           ; Switch size 1, requested type "simple"
  1714                           ; Number of cases is 2, Range of values is 4 to 8
  1715                           ; switch strategies available:
  1716                           ; Name         Instructions Cycles
  1717                           ; simple_byte            7     4 (average)
  1718                           ; direct_byte           26    11 (fixed)
  1719                           ; jumptable            263     9 (fixed)
  1720                           ;	Chosen strategy is simple_byte
  1721  1790  0820               	movf	??_BAUDSelect,w
  1722  1791  3A04               	xorlw	4	; case 4
  1723  1792  1903               	skipnz
  1724  1793  2F71               	goto	l234
  1725  1794  3A0C               	xorlw	12	; case 8
  1726  1795  1903               	skipnz
  1727  1796  2F7D               	goto	l236
  1728  1797  2F98               	goto	l238
  1729  1798                     l238:
  1730  1798  0008               	return
  1731  1799                     __end_of_BAUDSelect:
  1732                           
  1733                           	psect	text4
  1734  08C0                     __ptext4:	
  1735 ;; *************** function _initLCD *****************
  1736 ;; Defined at:
  1737 ;;		line 3 in file "D:/UVG-IngenieriaElectronica/5to-Semestre/Electronica-Digital-2/mini-02/master.X/_LCD.c"
  1738 ;; Parameters:    Size  Location     Type
  1739 ;;		None
  1740 ;; Auto vars:     Size  Location     Type
  1741 ;;		None
  1742 ;; Return value:  Size  Location     Type
  1743 ;;                  1    wreg      void 
  1744 ;; Registers used:
  1745 ;;		wreg, status,2, status,0, pclath, cstack
  1746 ;; Tracked objects:
  1747 ;;		On entry : 0/0
  1748 ;;		On exit  : 0/0
  1749 ;;		Unchanged: 0/0
  1750 ;; Data sizes:     COMMON   BANK0   BANK1   BANK3   BANK2
  1751 ;;      Params:         0       0       0       0       0
  1752 ;;      Locals:         0       0       0       0       0
  1753 ;;      Temps:          0       3       0       0       0
  1754 ;;      Totals:         0       3       0       0       0
  1755 ;;Total ram usage:        3 bytes
  1756 ;; Hardware stack levels used: 1
  1757 ;; Hardware stack levels required when called: 5
  1758 ;; This function calls:
  1759 ;;		_setCmd
  1760 ;; This function is called by:
  1761 ;;		_setup
  1762 ;; This function uses a non-reentrant model
  1763 ;;
  1764                           
  1765                           
  1766                           ;psect for function _initLCD
  1767  08C0                     _initLCD:
  1768  08C0                     l2226:	
  1769                           ;incstack = 0
  1770                           ; Regs used in _initLCD: [wreg+status,2+status,0+pclath+cstack]
  1771                           
  1772                           
  1773                           ;D:/UVG-IngenieriaElectronica/5to-Semestre/Electronica-Digital-2/mini-02/master.X/_LCD.c
      +                          : 5:     setCmd(0x00);
  1774  08C0  3000               	movlw	0
  1775  08C1  160A  118A  2610  120A  158A  	fcall	_setCmd
  1776  08C6                     l2228:
  1777                           
  1778                           ;D:/UVG-IngenieriaElectronica/5to-Semestre/Electronica-Digital-2/mini-02/master.X/_LCD.c
      +                          : 6:     _delay((unsigned long)((20)*(8000000/4000.0)));
  1779  08C6  3034               	movlw	52
  1780  08C7  1283               	bcf	3,5	;RP0=0, select bank0
  1781  08C8  1303               	bcf	3,6	;RP1=0, select bank0
  1782  08C9  00A4               	movwf	??_initLCD+1
  1783  08CA  30F1               	movlw	241
  1784  08CB  00A3               	movwf	??_initLCD
  1785  08CC                     u3767:
  1786  08CC  0BA3               	decfsz	??_initLCD,f
  1787  08CD  28CC               	goto	u3767
  1788  08CE  0BA4               	decfsz	??_initLCD+1,f
  1789  08CF  28CC               	goto	u3767
  1790  08D0                     l2230:
  1791                           
  1792                           ;D:/UVG-IngenieriaElectronica/5to-Semestre/Electronica-Digital-2/mini-02/master.X/_LCD.c
      +                          : 7:     setCmd(0x30);
  1793  08D0  3030               	movlw	48
  1794  08D1  160A  118A  2610  120A  158A  	fcall	_setCmd
  1795                           
  1796                           ;D:/UVG-IngenieriaElectronica/5to-Semestre/Electronica-Digital-2/mini-02/master.X/_LCD.c
      +                          : 8:     _delay((unsigned long)((5)*(8000000/4000.0)));
  1797  08D6  300D               	movlw	13
  1798  08D7  1283               	bcf	3,5	;RP0=0, select bank0
  1799  08D8  1303               	bcf	3,6	;RP1=0, select bank0
  1800  08D9  00A4               	movwf	??_initLCD+1
  1801  08DA  30FB               	movlw	251
  1802  08DB  00A3               	movwf	??_initLCD
  1803  08DC                     u3777:
  1804  08DC  0BA3               	decfsz	??_initLCD,f
  1805  08DD  28DC               	goto	u3777
  1806  08DE  0BA4               	decfsz	??_initLCD+1,f
  1807  08DF  28DC               	goto	u3777
  1808  08E0                     l2232:
  1809                           
  1810                           ;D:/UVG-IngenieriaElectronica/5to-Semestre/Electronica-Digital-2/mini-02/master.X/_LCD.c
      +                          : 9:     setCmd(0x30);
  1811  08E0  3030               	movlw	48
  1812  08E1  160A  118A  2610  120A  158A  	fcall	_setCmd
  1813  08E6                     l2234:
  1814                           
  1815                           ;D:/UVG-IngenieriaElectronica/5to-Semestre/Electronica-Digital-2/mini-02/master.X/_LCD.c
      +                          : 10:     _delay((unsigned long)((10)*(8000000/4000.0)));
  1816  08E6  301A               	movlw	26
  1817  08E7  1283               	bcf	3,5	;RP0=0, select bank0
  1818  08E8  1303               	bcf	3,6	;RP1=0, select bank0
  1819  08E9  00A4               	movwf	??_initLCD+1
  1820  08EA  30F7               	movlw	247
  1821  08EB  00A3               	movwf	??_initLCD
  1822  08EC                     u3787:
  1823  08EC  0BA3               	decfsz	??_initLCD,f
  1824  08ED  28EC               	goto	u3787
  1825  08EE  0BA4               	decfsz	??_initLCD+1,f
  1826  08EF  28EC               	goto	u3787
  1827  08F0  28F1               	nop2
  1828                           
  1829                           ;D:/UVG-IngenieriaElectronica/5to-Semestre/Electronica-Digital-2/mini-02/master.X/_LCD.c
      +                          : 11:     setCmd(0x30);
  1830  08F1  3030               	movlw	48
  1831  08F2  160A  118A  2610  120A  158A  	fcall	_setCmd
  1832  08F7                     l2236:
  1833                           
  1834                           ;D:/UVG-IngenieriaElectronica/5to-Semestre/Electronica-Digital-2/mini-02/master.X/_LCD.c
      +                          : 12:     _delay((unsigned long)((100)*(8000000/4000000.0)));
  1835  08F7  3041               	movlw	65
  1836  08F8  1283               	bcf	3,5	;RP0=0, select bank0
  1837  08F9  1303               	bcf	3,6	;RP1=0, select bank0
  1838  08FA  00A3               	movwf	??_initLCD
  1839  08FB                     u3797:
  1840  08FB  0BA3               	decfsz	??_initLCD,f
  1841  08FC  28FB               	goto	u3797
  1842  08FD  28FE               	nop2
  1843  08FE                     l2238:
  1844                           
  1845                           ;D:/UVG-IngenieriaElectronica/5to-Semestre/Electronica-Digital-2/mini-02/master.X/_LCD.c
      +                          : 14:     setCmd(0x38);
  1846  08FE  3038               	movlw	56
  1847  08FF  160A  118A  2610  120A  158A  	fcall	_setCmd
  1848  0904                     l2240:
  1849                           
  1850                           ;D:/UVG-IngenieriaElectronica/5to-Semestre/Electronica-Digital-2/mini-02/master.X/_LCD.c
      +                          : 16:     setCmd(0x0C);
  1851  0904  300C               	movlw	12
  1852  0905  160A  118A  2610  120A  158A  	fcall	_setCmd
  1853  090A                     l2242:
  1854                           
  1855                           ;D:/UVG-IngenieriaElectronica/5to-Semestre/Electronica-Digital-2/mini-02/master.X/_LCD.c
      +                          : 18:     setCmd(0x01);
  1856  090A  3001               	movlw	1
  1857  090B  160A  118A  2610  120A  158A  	fcall	_setCmd
  1858  0910                     l2244:
  1859                           
  1860                           ;D:/UVG-IngenieriaElectronica/5to-Semestre/Electronica-Digital-2/mini-02/master.X/_LCD.c
      +                          : 20:     setCmd(0x06);
  1861  0910  3006               	movlw	6
  1862  0911  160A  118A  2610  120A  158A  	fcall	_setCmd
  1863  0916                     l2246:
  1864                           
  1865                           ;D:/UVG-IngenieriaElectronica/5to-Semestre/Electronica-Digital-2/mini-02/master.X/_LCD.c
      +                          : 21:     _delay((unsigned long)((100)*(8000000/4000.0)));
  1866  0916  3002               	movlw	2
  1867  0917  1283               	bcf	3,5	;RP0=0, select bank0
  1868  0918  1303               	bcf	3,6	;RP1=0, select bank0
  1869  0919  00A5               	movwf	??_initLCD+2
  1870  091A  3004               	movlw	4
  1871  091B  00A4               	movwf	??_initLCD+1
  1872  091C  30B9               	movlw	185
  1873  091D  00A3               	movwf	??_initLCD
  1874  091E                     u3807:
  1875  091E  0BA3               	decfsz	??_initLCD,f
  1876  091F  291E               	goto	u3807
  1877  0920  0BA4               	decfsz	??_initLCD+1,f
  1878  0921  291E               	goto	u3807
  1879  0922  0BA5               	decfsz	??_initLCD+2,f
  1880  0923  291E               	goto	u3807
  1881  0924  2925               	nop2
  1882  0925                     l188:
  1883  0925  0008               	return
  1884  0926                     __end_of_initLCD:
  1885                           
  1886                           	psect	text5
  1887  0B69                     __ptext5:	
  1888 ;; *************** function _MPU6050_Init *****************
  1889 ;; Defined at:
  1890 ;;		line 12 in file "D:/UVG-IngenieriaElectronica/5to-Semestre/Electronica-Digital-2/mini-02/master.X/_MPU6050.c"
  1891 ;; Parameters:    Size  Location     Type
  1892 ;;		None
  1893 ;; Auto vars:     Size  Location     Type
  1894 ;;		None
  1895 ;; Return value:  Size  Location     Type
  1896 ;;                  1    wreg      void 
  1897 ;; Registers used:
  1898 ;;		wreg, status,2, status,0, pclath, cstack
  1899 ;; Tracked objects:
  1900 ;;		On entry : 0/0
  1901 ;;		On exit  : 0/0
  1902 ;;		Unchanged: 0/0
  1903 ;; Data sizes:     COMMON   BANK0   BANK1   BANK3   BANK2
  1904 ;;      Params:         0       0       0       0       0
  1905 ;;      Locals:         0       0       0       0       0
  1906 ;;      Temps:          0       3       0       0       0
  1907 ;;      Totals:         0       3       0       0       0
  1908 ;;Total ram usage:        3 bytes
  1909 ;; Hardware stack levels used: 1
  1910 ;; Hardware stack levels required when called: 7
  1911 ;; This function calls:
  1912 ;;		_I2C_Master_Init
  1913 ;;		_I2C_Master_Stop
  1914 ;;		_I2C_Master_Write
  1915 ;;		_I2C_Start
  1916 ;; This function is called by:
  1917 ;;		_setup
  1918 ;; This function uses a non-reentrant model
  1919 ;;
  1920                           
  1921                           
  1922                           ;psect for function _MPU6050_Init
  1923  0B69                     _MPU6050_Init:
  1924  0B69                     l2268:	
  1925                           ;incstack = 0
  1926 ;; hardware stack exceeded
  1927                           ; Regs used in _MPU6050_Init: [wreg+status,2+status,0+pclath+cstack]
  1928                           
  1929                           
  1930                           ;D:/UVG-IngenieriaElectronica/5to-Semestre/Electronica-Digital-2/mini-02/master.X/_MPU60
      +                          50.c: 14:   _delay((unsigned long)((100)*(8000000/4000.0)));
  1931  0B69  3002               	movlw	2
  1932  0B6A  1283               	bcf	3,5	;RP0=0, select bank0
  1933  0B6B  1303               	bcf	3,6	;RP1=0, select bank0
  1934  0B6C  00B8               	movwf	??_MPU6050_Init+2
  1935  0B6D  3004               	movlw	4
  1936  0B6E  00B7               	movwf	??_MPU6050_Init+1
  1937  0B6F  30B9               	movlw	185
  1938  0B70  00B6               	movwf	??_MPU6050_Init
  1939  0B71                     u3817:
  1940  0B71  0BB6               	decfsz	??_MPU6050_Init,f
  1941  0B72  2B71               	goto	u3817
  1942  0B73  0BB7               	decfsz	??_MPU6050_Init+1,f
  1943  0B74  2B71               	goto	u3817
  1944  0B75  0BB8               	decfsz	??_MPU6050_Init+2,f
  1945  0B76  2B71               	goto	u3817
  1946  0B77  2B78               	nop2
  1947  0B78                     l2270:
  1948                           
  1949                           ;D:/UVG-IngenieriaElectronica/5to-Semestre/Electronica-Digital-2/mini-02/master.X/_MPU60
      +                          50.c: 15:   I2C_Master_Init(100000);
  1950  0B78  3000               	movlw	0
  1951  0B79  1283               	bcf	3,5	;RP0=0, select bank0
  1952  0B7A  1303               	bcf	3,6	;RP1=0, select bank0
  1953  0B7B  00B1               	movwf	I2C_Master_Init@c+3
  1954  0B7C  3001               	movlw	1
  1955  0B7D  00B0               	movwf	I2C_Master_Init@c+2
  1956  0B7E  3086               	movlw	134
  1957  0B7F  00AF               	movwf	I2C_Master_Init@c+1
  1958  0B80  30A0               	movlw	160
  1959  0B81  00AE               	movwf	I2C_Master_Init@c
  1960  0B82  160A  118A  27C6  120A  158A  	fcall	_I2C_Master_Init
  1961  0B87                     l2272:
  1962                           
  1963                           ;D:/UVG-IngenieriaElectronica/5to-Semestre/Electronica-Digital-2/mini-02/master.X/_MPU60
      +                          50.c: 18:   I2C_Start(0xD0);
  1964  0B87  30D0               	movlw	208
  1965  0B88  160A  118A  2626  120A  158A  	fcall	_I2C_Start
  1966  0B8D                     l2274:
  1967                           
  1968                           ;D:/UVG-IngenieriaElectronica/5to-Semestre/Electronica-Digital-2/mini-02/master.X/_MPU60
      +                          50.c: 19:   I2C_Master_Write(0x19);
  1969  0B8D  3019               	movlw	25
  1970  0B8E  1283               	bcf	3,5	;RP0=0, select bank0
  1971  0B8F  1303               	bcf	3,6	;RP1=0, select bank0
  1972  0B90  00A0               	movwf	I2C_Master_Write@d
  1973  0B91  3000               	movlw	0
  1974  0B92  00A1               	movwf	I2C_Master_Write@d+1
  1975  0B93  160A  118A  25BF  120A  158A  	fcall	_I2C_Master_Write
  1976  0B98                     l2276:
  1977                           
  1978                           ;D:/UVG-IngenieriaElectronica/5to-Semestre/Electronica-Digital-2/mini-02/master.X/_MPU60
      +                          50.c: 20:   I2C_Master_Write(0x07);
  1979  0B98  3007               	movlw	7
  1980  0B99  1283               	bcf	3,5	;RP0=0, select bank0
  1981  0B9A  1303               	bcf	3,6	;RP1=0, select bank0
  1982  0B9B  00A0               	movwf	I2C_Master_Write@d
  1983  0B9C  3000               	movlw	0
  1984  0B9D  00A1               	movwf	I2C_Master_Write@d+1
  1985  0B9E  160A  118A  25BF  120A  158A  	fcall	_I2C_Master_Write
  1986  0BA3                     l2278:
  1987                           
  1988                           ;D:/UVG-IngenieriaElectronica/5to-Semestre/Electronica-Digital-2/mini-02/master.X/_MPU60
      +                          50.c: 21:   I2C_Master_Stop();
  1989  0BA3  160A  118A  2598  120A  158A  	fcall	_I2C_Master_Stop
  1990  0BA8                     l2280:
  1991                           
  1992                           ;D:/UVG-IngenieriaElectronica/5to-Semestre/Electronica-Digital-2/mini-02/master.X/_MPU60
      +                          50.c: 24:   I2C_Start(0xD0);
  1993  0BA8  30D0               	movlw	208
  1994  0BA9  160A  118A  2626  120A  158A  	fcall	_I2C_Start
  1995  0BAE                     l2282:
  1996                           
  1997                           ;D:/UVG-IngenieriaElectronica/5to-Semestre/Electronica-Digital-2/mini-02/master.X/_MPU60
      +                          50.c: 25:   I2C_Master_Write(0x6B);
  1998  0BAE  306B               	movlw	107
  1999  0BAF  1283               	bcf	3,5	;RP0=0, select bank0
  2000  0BB0  1303               	bcf	3,6	;RP1=0, select bank0
  2001  0BB1  00A0               	movwf	I2C_Master_Write@d
  2002  0BB2  3000               	movlw	0
  2003  0BB3  00A1               	movwf	I2C_Master_Write@d+1
  2004  0BB4  160A  118A  25BF  120A  158A  	fcall	_I2C_Master_Write
  2005  0BB9                     l2284:
  2006                           
  2007                           ;D:/UVG-IngenieriaElectronica/5to-Semestre/Electronica-Digital-2/mini-02/master.X/_MPU60
      +                          50.c: 26:   I2C_Master_Write(0x01);
  2008  0BB9  3001               	movlw	1
  2009  0BBA  1283               	bcf	3,5	;RP0=0, select bank0
  2010  0BBB  1303               	bcf	3,6	;RP1=0, select bank0
  2011  0BBC  00A0               	movwf	I2C_Master_Write@d
  2012  0BBD  3000               	movlw	0
  2013  0BBE  00A1               	movwf	I2C_Master_Write@d+1
  2014  0BBF  160A  118A  25BF  120A  158A  	fcall	_I2C_Master_Write
  2015  0BC4                     l2286:
  2016                           
  2017                           ;D:/UVG-IngenieriaElectronica/5to-Semestre/Electronica-Digital-2/mini-02/master.X/_MPU60
      +                          50.c: 27:   I2C_Master_Stop();
  2018  0BC4  160A  118A  2598  120A  158A  	fcall	_I2C_Master_Stop
  2019  0BC9                     l2288:
  2020                           
  2021                           ;D:/UVG-IngenieriaElectronica/5to-Semestre/Electronica-Digital-2/mini-02/master.X/_MPU60
      +                          50.c: 30:   I2C_Start(0xD0);
  2022  0BC9  30D0               	movlw	208
  2023  0BCA  160A  118A  2626  120A  158A  	fcall	_I2C_Start
  2024  0BCF                     l2290:
  2025                           
  2026                           ;D:/UVG-IngenieriaElectronica/5to-Semestre/Electronica-Digital-2/mini-02/master.X/_MPU60
      +                          50.c: 31:   I2C_Master_Write(0x1A);
  2027  0BCF  301A               	movlw	26
  2028  0BD0  1283               	bcf	3,5	;RP0=0, select bank0
  2029  0BD1  1303               	bcf	3,6	;RP1=0, select bank0
  2030  0BD2  00A0               	movwf	I2C_Master_Write@d
  2031  0BD3  3000               	movlw	0
  2032  0BD4  00A1               	movwf	I2C_Master_Write@d+1
  2033  0BD5  160A  118A  25BF  120A  158A  	fcall	_I2C_Master_Write
  2034  0BDA                     l2292:
  2035                           
  2036                           ;D:/UVG-IngenieriaElectronica/5to-Semestre/Electronica-Digital-2/mini-02/master.X/_MPU60
      +                          50.c: 32:   I2C_Master_Write(0x00);
  2037  0BDA  3000               	movlw	0
  2038  0BDB  1283               	bcf	3,5	;RP0=0, select bank0
  2039  0BDC  1303               	bcf	3,6	;RP1=0, select bank0
  2040  0BDD  00A0               	movwf	I2C_Master_Write@d
  2041  0BDE  00A1               	movwf	I2C_Master_Write@d+1
  2042  0BDF  160A  118A  25BF  120A  158A  	fcall	_I2C_Master_Write
  2043  0BE4                     l2294:
  2044                           
  2045                           ;D:/UVG-IngenieriaElectronica/5to-Semestre/Electronica-Digital-2/mini-02/master.X/_MPU60
      +                          50.c: 33:   I2C_Master_Stop();
  2046  0BE4  160A  118A  2598  120A  158A  	fcall	_I2C_Master_Stop
  2047  0BE9                     l2296:
  2048                           
  2049                           ;D:/UVG-IngenieriaElectronica/5to-Semestre/Electronica-Digital-2/mini-02/master.X/_MPU60
      +                          50.c: 36:   I2C_Start(0xD0);
  2050  0BE9  30D0               	movlw	208
  2051  0BEA  160A  118A  2626  120A  158A  	fcall	_I2C_Start
  2052  0BEF                     l2298:
  2053                           
  2054                           ;D:/UVG-IngenieriaElectronica/5to-Semestre/Electronica-Digital-2/mini-02/master.X/_MPU60
      +                          50.c: 37:   I2C_Master_Write(0x1C);
  2055  0BEF  301C               	movlw	28
  2056  0BF0  1283               	bcf	3,5	;RP0=0, select bank0
  2057  0BF1  1303               	bcf	3,6	;RP1=0, select bank0
  2058  0BF2  00A0               	movwf	I2C_Master_Write@d
  2059  0BF3  3000               	movlw	0
  2060  0BF4  00A1               	movwf	I2C_Master_Write@d+1
  2061  0BF5  160A  118A  25BF  120A  158A  	fcall	_I2C_Master_Write
  2062  0BFA                     l2300:
  2063                           
  2064                           ;D:/UVG-IngenieriaElectronica/5to-Semestre/Electronica-Digital-2/mini-02/master.X/_MPU60
      +                          50.c: 38:   I2C_Master_Write(0x00);
  2065  0BFA  3000               	movlw	0
  2066  0BFB  1283               	bcf	3,5	;RP0=0, select bank0
  2067  0BFC  1303               	bcf	3,6	;RP1=0, select bank0
  2068  0BFD  00A0               	movwf	I2C_Master_Write@d
  2069  0BFE  00A1               	movwf	I2C_Master_Write@d+1
  2070  0BFF  160A  118A  25BF  120A  158A  	fcall	_I2C_Master_Write
  2071  0C04                     l2302:
  2072                           
  2073                           ;D:/UVG-IngenieriaElectronica/5to-Semestre/Electronica-Digital-2/mini-02/master.X/_MPU60
      +                          50.c: 39:   I2C_Master_Stop();
  2074  0C04  160A  118A  2598  120A  158A  	fcall	_I2C_Master_Stop
  2075  0C09                     l2304:
  2076                           
  2077                           ;D:/UVG-IngenieriaElectronica/5to-Semestre/Electronica-Digital-2/mini-02/master.X/_MPU60
      +                          50.c: 42:   I2C_Start(0xD0);
  2078  0C09  30D0               	movlw	208
  2079  0C0A  160A  118A  2626  120A  158A  	fcall	_I2C_Start
  2080  0C0F                     l2306:
  2081                           
  2082                           ;D:/UVG-IngenieriaElectronica/5to-Semestre/Electronica-Digital-2/mini-02/master.X/_MPU60
      +                          50.c: 43:   I2C_Master_Write(0x1B);
  2083  0C0F  301B               	movlw	27
  2084  0C10  1283               	bcf	3,5	;RP0=0, select bank0
  2085  0C11  1303               	bcf	3,6	;RP1=0, select bank0
  2086  0C12  00A0               	movwf	I2C_Master_Write@d
  2087  0C13  3000               	movlw	0
  2088  0C14  00A1               	movwf	I2C_Master_Write@d+1
  2089  0C15  160A  118A  25BF  120A  158A  	fcall	_I2C_Master_Write
  2090  0C1A                     l2308:
  2091                           
  2092                           ;D:/UVG-IngenieriaElectronica/5to-Semestre/Electronica-Digital-2/mini-02/master.X/_MPU60
      +                          50.c: 44:   I2C_Master_Write(0x18);
  2093  0C1A  3018               	movlw	24
  2094  0C1B  1283               	bcf	3,5	;RP0=0, select bank0
  2095  0C1C  1303               	bcf	3,6	;RP1=0, select bank0
  2096  0C1D  00A0               	movwf	I2C_Master_Write@d
  2097  0C1E  3000               	movlw	0
  2098  0C1F  00A1               	movwf	I2C_Master_Write@d+1
  2099  0C20  160A  118A  25BF  120A  158A  	fcall	_I2C_Master_Write
  2100  0C25                     l2310:
  2101                           
  2102                           ;D:/UVG-IngenieriaElectronica/5to-Semestre/Electronica-Digital-2/mini-02/master.X/_MPU60
      +                          50.c: 45:   I2C_Master_Stop();
  2103  0C25  160A  118A  2598  120A  158A  	fcall	_I2C_Master_Stop
  2104  0C2A                     l2312:
  2105                           
  2106                           ;D:/UVG-IngenieriaElectronica/5to-Semestre/Electronica-Digital-2/mini-02/master.X/_MPU60
      +                          50.c: 48:   I2C_Start(0xD0);
  2107  0C2A  30D0               	movlw	208
  2108  0C2B  160A  118A  2626  120A  158A  	fcall	_I2C_Start
  2109  0C30                     l2314:
  2110                           
  2111                           ;D:/UVG-IngenieriaElectronica/5to-Semestre/Electronica-Digital-2/mini-02/master.X/_MPU60
      +                          50.c: 49:   I2C_Master_Write(0x38);
  2112  0C30  3038               	movlw	56
  2113  0C31  1283               	bcf	3,5	;RP0=0, select bank0
  2114  0C32  1303               	bcf	3,6	;RP1=0, select bank0
  2115  0C33  00A0               	movwf	I2C_Master_Write@d
  2116  0C34  3000               	movlw	0
  2117  0C35  00A1               	movwf	I2C_Master_Write@d+1
  2118  0C36  160A  118A  25BF  120A  158A  	fcall	_I2C_Master_Write
  2119  0C3B                     l2316:
  2120                           
  2121                           ;D:/UVG-IngenieriaElectronica/5to-Semestre/Electronica-Digital-2/mini-02/master.X/_MPU60
      +                          50.c: 50:   I2C_Master_Write(0x01);
  2122  0C3B  3001               	movlw	1
  2123  0C3C  1283               	bcf	3,5	;RP0=0, select bank0
  2124  0C3D  1303               	bcf	3,6	;RP1=0, select bank0
  2125  0C3E  00A0               	movwf	I2C_Master_Write@d
  2126  0C3F  3000               	movlw	0
  2127  0C40  00A1               	movwf	I2C_Master_Write@d+1
  2128  0C41  160A  118A  25BF  120A  158A  	fcall	_I2C_Master_Write
  2129  0C46                     l2318:
  2130                           
  2131                           ;D:/UVG-IngenieriaElectronica/5to-Semestre/Electronica-Digital-2/mini-02/master.X/_MPU60
      +                          50.c: 51:   I2C_Master_Stop();
  2132  0C46  160A  118A  2598  120A  158A  	fcall	_I2C_Master_Stop
  2133  0C4B                     l282:
  2134  0C4B  0008               	return
  2135  0C4C                     __end_of_MPU6050_Init:
  2136                           
  2137                           	psect	text6
  2138  17C6                     __ptext6:	
  2139 ;; *************** function _I2C_Master_Init *****************
  2140 ;; Defined at:
  2141 ;;		line 16 in file "D:/UVG-IngenieriaElectronica/5to-Semestre/Electronica-Digital-2/mini-02/master.X/_I2C.c"
  2142 ;; Parameters:    Size  Location     Type
  2143 ;;  c               4   14[BANK0 ] const unsigned long 
  2144 ;; Auto vars:     Size  Location     Type
  2145 ;;		None
  2146 ;; Return value:  Size  Location     Type
  2147 ;;                  1    wreg      void 
  2148 ;; Registers used:
  2149 ;;		wreg, status,2, status,0, pclath, cstack
  2150 ;; Tracked objects:
  2151 ;;		On entry : 0/0
  2152 ;;		On exit  : 0/0
  2153 ;;		Unchanged: 0/0
  2154 ;; Data sizes:     COMMON   BANK0   BANK1   BANK3   BANK2
  2155 ;;      Params:         0       4       0       0       0
  2156 ;;      Locals:         0       0       0       0       0
  2157 ;;      Temps:          0       4       0       0       0
  2158 ;;      Totals:         0       8       0       0       0
  2159 ;;Total ram usage:        8 bytes
  2160 ;; Hardware stack levels used: 1
  2161 ;; Hardware stack levels required when called: 5
  2162 ;; This function calls:
  2163 ;;		___lldiv
  2164 ;; This function is called by:
  2165 ;;		_MPU6050_Init
  2166 ;; This function uses a non-reentrant model
  2167 ;;
  2168                           
  2169                           
  2170                           ;psect for function _I2C_Master_Init
  2171  17C6                     _I2C_Master_Init:
  2172  17C6                     l2028:	
  2173                           ;incstack = 0
  2174                           ; Regs used in _I2C_Master_Init: [wreg+status,2+status,0+pclath+cstack]
  2175                           
  2176                           
  2177                           ;D:/UVG-IngenieriaElectronica/5to-Semestre/Electronica-Digital-2/mini-02/master.X/_I2C.c
      +                          : 16: void I2C_Master_Init(const unsigned long c);D:/UVG-IngenieriaElectronica/5to-Semes
      +                          tre/Electronica-Digital-2/mini-02/master.X/_I2C.c: 17: {;D:/UVG-IngenieriaElectronica/5t
      +                          o-Semestre/Electronica-Digital-2/mini-02/master.X/_I2C.c: 18:     SSPCON = 0b00101000;
  2178  17C6  3028               	movlw	40
  2179  17C7  1283               	bcf	3,5	;RP0=0, select bank0
  2180  17C8  1303               	bcf	3,6	;RP1=0, select bank0
  2181  17C9  0094               	movwf	20	;volatile
  2182  17CA                     l2030:
  2183                           
  2184                           ;D:/UVG-IngenieriaElectronica/5to-Semestre/Electronica-Digital-2/mini-02/master.X/_I2C.c
      +                          : 19:     SSPCON2 = 0;
  2185  17CA  1683               	bsf	3,5	;RP0=1, select bank1
  2186  17CB  1303               	bcf	3,6	;RP1=0, select bank1
  2187  17CC  0191               	clrf	17	;volatile
  2188  17CD                     l2032:
  2189                           
  2190                           ;D:/UVG-IngenieriaElectronica/5to-Semestre/Electronica-Digital-2/mini-02/master.X/_I2C.c
      +                          : 20:     SSPADD = (8000000/(4*c))-1;
  2191  17CD  1283               	bcf	3,5	;RP0=0, select bank0
  2192  17CE  1303               	bcf	3,6	;RP1=0, select bank0
  2193  17CF  082E               	movf	I2C_Master_Init@c,w
  2194  17D0  00B2               	movwf	??_I2C_Master_Init
  2195  17D1  082F               	movf	I2C_Master_Init@c+1,w
  2196  17D2  00B3               	movwf	??_I2C_Master_Init+1
  2197  17D3  0830               	movf	I2C_Master_Init@c+2,w
  2198  17D4  00B4               	movwf	??_I2C_Master_Init+2
  2199  17D5  0831               	movf	I2C_Master_Init@c+3,w
  2200  17D6  00B5               	movwf	??_I2C_Master_Init+3
  2201  17D7  3002               	movlw	2
  2202  17D8                     u1985:
  2203  17D8  1003               	clrc
  2204  17D9  0DB2               	rlf	??_I2C_Master_Init,f
  2205  17DA  0DB3               	rlf	??_I2C_Master_Init+1,f
  2206  17DB  0DB4               	rlf	??_I2C_Master_Init+2,f
  2207  17DC  0DB5               	rlf	??_I2C_Master_Init+3,f
  2208  17DD                     u1980:
  2209  17DD  3EFF               	addlw	-1
  2210  17DE  1D03               	skipz
  2211  17DF  2FD8               	goto	u1985
  2212  17E0  0835               	movf	??_I2C_Master_Init+3,w
  2213  17E1  00A3               	movwf	___lldiv@divisor+3
  2214  17E2  0834               	movf	??_I2C_Master_Init+2,w
  2215  17E3  00A2               	movwf	___lldiv@divisor+2
  2216  17E4  0833               	movf	??_I2C_Master_Init+1,w
  2217  17E5  00A1               	movwf	___lldiv@divisor+1
  2218  17E6  0832               	movf	??_I2C_Master_Init,w
  2219  17E7  00A0               	movwf	___lldiv@divisor
  2220  17E8  3000               	movlw	0
  2221  17E9  00A7               	movwf	___lldiv@dividend+3
  2222  17EA  307A               	movlw	122
  2223  17EB  00A6               	movwf	___lldiv@dividend+2
  2224  17EC  3012               	movlw	18
  2225  17ED  00A5               	movwf	___lldiv@dividend+1
  2226  17EE  3000               	movlw	0
  2227  17EF  00A4               	movwf	___lldiv@dividend
  2228  17F0  120A  158A  2126  160A  118A  	fcall	___lldiv
  2229  17F5  1283               	bcf	3,5	;RP0=0, select bank0
  2230  17F6  1303               	bcf	3,6	;RP1=0, select bank0
  2231  17F7  0820               	movf	?___lldiv,w
  2232  17F8  3EFF               	addlw	255
  2233  17F9  1683               	bsf	3,5	;RP0=1, select bank1
  2234  17FA  1303               	bcf	3,6	;RP1=0, select bank1
  2235  17FB  0093               	movwf	19	;volatile
  2236  17FC                     l2034:
  2237                           
  2238                           ;D:/UVG-IngenieriaElectronica/5to-Semestre/Electronica-Digital-2/mini-02/master.X/_I2C.c
      +                          : 21:     SSPSTAT = 0;
  2239  17FC  0194               	clrf	20	;volatile
  2240  17FD                     l2036:
  2241                           
  2242                           ;D:/UVG-IngenieriaElectronica/5to-Semestre/Electronica-Digital-2/mini-02/master.X/_I2C.c
      +                          : 22:     TRISCbits.TRISC3 = 1;
  2243  17FD  1587               	bsf	7,3	;volatile
  2244  17FE                     l2038:
  2245                           
  2246                           ;D:/UVG-IngenieriaElectronica/5to-Semestre/Electronica-Digital-2/mini-02/master.X/_I2C.c
      +                          : 23:     TRISCbits.TRISC4 = 1;
  2247  17FE  1607               	bsf	7,4	;volatile
  2248  17FF                     l131:
  2249  17FF  0008               	return
  2250  1800                     __end_of_I2C_Master_Init:
  2251                           
  2252                           	psect	text7
  2253  0926                     __ptext7:	
  2254 ;; *************** function ___lldiv *****************
  2255 ;; Defined at:
  2256 ;;		line 5 in file "C:\Program Files\Microchip\xc8\v2.32\pic\sources\c90\common\__lldiv.c"
  2257 ;; Parameters:    Size  Location     Type
  2258 ;;  divisor         4    0[BANK0 ] unsigned long 
  2259 ;;  dividend        4    4[BANK0 ] unsigned long 
  2260 ;; Auto vars:     Size  Location     Type
  2261 ;;  quotient        4    9[BANK0 ] unsigned long 
  2262 ;;  counter         1   13[BANK0 ] unsigned char 
  2263 ;; Return value:  Size  Location     Type
  2264 ;;                  4    0[BANK0 ] unsigned long 
  2265 ;; Registers used:
  2266 ;;		wreg, status,2, status,0
  2267 ;; Tracked objects:
  2268 ;;		On entry : 0/0
  2269 ;;		On exit  : 0/0
  2270 ;;		Unchanged: 0/0
  2271 ;; Data sizes:     COMMON   BANK0   BANK1   BANK3   BANK2
  2272 ;;      Params:         0       8       0       0       0
  2273 ;;      Locals:         0       5       0       0       0
  2274 ;;      Temps:          0       1       0       0       0
  2275 ;;      Totals:         0      14       0       0       0
  2276 ;;Total ram usage:       14 bytes
  2277 ;; Hardware stack levels used: 1
  2278 ;; Hardware stack levels required when called: 4
  2279 ;; This function calls:
  2280 ;;		Nothing
  2281 ;; This function is called by:
  2282 ;;		_I2C_Master_Init
  2283 ;; This function uses a non-reentrant model
  2284 ;;
  2285                           
  2286                           
  2287                           ;psect for function ___lldiv
  2288  0926                     ___lldiv:
  2289  0926                     l2000:	
  2290                           ;incstack = 0
  2291                           ; Regs used in ___lldiv: [wreg+status,2+status,0]
  2292                           
  2293  0926  3000               	movlw	0
  2294  0927  1283               	bcf	3,5	;RP0=0, select bank0
  2295  0928  1303               	bcf	3,6	;RP1=0, select bank0
  2296  0929  00AC               	movwf	___lldiv@quotient+3
  2297  092A  3000               	movlw	0
  2298  092B  00AB               	movwf	___lldiv@quotient+2
  2299  092C  3000               	movlw	0
  2300  092D  00AA               	movwf	___lldiv@quotient+1
  2301  092E  3000               	movlw	0
  2302  092F  00A9               	movwf	___lldiv@quotient
  2303  0930  0823               	movf	___lldiv@divisor+3,w
  2304  0931  0422               	iorwf	___lldiv@divisor+2,w
  2305  0932  0421               	iorwf	___lldiv@divisor+1,w
  2306  0933  0420               	iorwf	___lldiv@divisor,w
  2307  0934  1903               	skipnz
  2308  0935  2937               	goto	u1911
  2309  0936  2938               	goto	u1910
  2310  0937                     u1911:
  2311  0937  2985               	goto	l2020
  2312  0938                     u1910:
  2313  0938                     l2002:
  2314  0938  01AD               	clrf	___lldiv@counter
  2315  0939  0AAD               	incf	___lldiv@counter,f
  2316  093A  2948               	goto	l2006
  2317  093B                     l2004:
  2318  093B  3001               	movlw	1
  2319  093C  00A8               	movwf	??___lldiv
  2320  093D                     u1925:
  2321  093D  1003               	clrc
  2322  093E  0DA0               	rlf	___lldiv@divisor,f
  2323  093F  0DA1               	rlf	___lldiv@divisor+1,f
  2324  0940  0DA2               	rlf	___lldiv@divisor+2,f
  2325  0941  0DA3               	rlf	___lldiv@divisor+3,f
  2326  0942  0BA8               	decfsz	??___lldiv,f
  2327  0943  293D               	goto	u1925
  2328  0944  3001               	movlw	1
  2329  0945  00A8               	movwf	??___lldiv
  2330  0946  0828               	movf	??___lldiv,w
  2331  0947  07AD               	addwf	___lldiv@counter,f
  2332  0948                     l2006:
  2333  0948  1FA3               	btfss	___lldiv@divisor+3,7
  2334  0949  294B               	goto	u1931
  2335  094A  294C               	goto	u1930
  2336  094B                     u1931:
  2337  094B  293B               	goto	l2004
  2338  094C                     u1930:
  2339  094C                     l2008:
  2340  094C  3001               	movlw	1
  2341  094D  00A8               	movwf	??___lldiv
  2342  094E                     u1945:
  2343  094E  1003               	clrc
  2344  094F  0DA9               	rlf	___lldiv@quotient,f
  2345  0950  0DAA               	rlf	___lldiv@quotient+1,f
  2346  0951  0DAB               	rlf	___lldiv@quotient+2,f
  2347  0952  0DAC               	rlf	___lldiv@quotient+3,f
  2348  0953  0BA8               	decfsz	??___lldiv,f
  2349  0954  294E               	goto	u1945
  2350  0955                     l2010:
  2351  0955  0823               	movf	___lldiv@divisor+3,w
  2352  0956  0227               	subwf	___lldiv@dividend+3,w
  2353  0957  1D03               	skipz
  2354  0958  2963               	goto	u1955
  2355  0959  0822               	movf	___lldiv@divisor+2,w
  2356  095A  0226               	subwf	___lldiv@dividend+2,w
  2357  095B  1D03               	skipz
  2358  095C  2963               	goto	u1955
  2359  095D  0821               	movf	___lldiv@divisor+1,w
  2360  095E  0225               	subwf	___lldiv@dividend+1,w
  2361  095F  1D03               	skipz
  2362  0960  2963               	goto	u1955
  2363  0961  0820               	movf	___lldiv@divisor,w
  2364  0962  0224               	subwf	___lldiv@dividend,w
  2365  0963                     u1955:
  2366  0963  1C03               	skipc
  2367  0964  2966               	goto	u1951
  2368  0965  2967               	goto	u1950
  2369  0966                     u1951:
  2370  0966  2976               	goto	l2016
  2371  0967                     u1950:
  2372  0967                     l2012:
  2373  0967  0820               	movf	___lldiv@divisor,w
  2374  0968  02A4               	subwf	___lldiv@dividend,f
  2375  0969  0821               	movf	___lldiv@divisor+1,w
  2376  096A  1C03               	skipc
  2377  096B  0F21               	incfsz	___lldiv@divisor+1,w
  2378  096C  02A5               	subwf	___lldiv@dividend+1,f
  2379  096D  0822               	movf	___lldiv@divisor+2,w
  2380  096E  1C03               	skipc
  2381  096F  0F22               	incfsz	___lldiv@divisor+2,w
  2382  0970  02A6               	subwf	___lldiv@dividend+2,f
  2383  0971  0823               	movf	___lldiv@divisor+3,w
  2384  0972  1C03               	skipc
  2385  0973  0F23               	incfsz	___lldiv@divisor+3,w
  2386  0974  02A7               	subwf	___lldiv@dividend+3,f
  2387  0975                     l2014:
  2388  0975  1429               	bsf	___lldiv@quotient,0
  2389  0976                     l2016:
  2390  0976  3001               	movlw	1
  2391  0977                     u1965:
  2392  0977  1003               	clrc
  2393  0978  0CA3               	rrf	___lldiv@divisor+3,f
  2394  0979  0CA2               	rrf	___lldiv@divisor+2,f
  2395  097A  0CA1               	rrf	___lldiv@divisor+1,f
  2396  097B  0CA0               	rrf	___lldiv@divisor,f
  2397  097C  3EFF               	addlw	-1
  2398  097D  1D03               	skipz
  2399  097E  2977               	goto	u1965
  2400  097F                     l2018:
  2401  097F  3001               	movlw	1
  2402  0980  02AD               	subwf	___lldiv@counter,f
  2403  0981  1D03               	btfss	3,2
  2404  0982  2984               	goto	u1971
  2405  0983  2985               	goto	u1970
  2406  0984                     u1971:
  2407  0984  294C               	goto	l2008
  2408  0985                     u1970:
  2409  0985                     l2020:
  2410  0985  082C               	movf	___lldiv@quotient+3,w
  2411  0986  00A3               	movwf	?___lldiv+3
  2412  0987  082B               	movf	___lldiv@quotient+2,w
  2413  0988  00A2               	movwf	?___lldiv+2
  2414  0989  082A               	movf	___lldiv@quotient+1,w
  2415  098A  00A1               	movwf	?___lldiv+1
  2416  098B  0829               	movf	___lldiv@quotient,w
  2417  098C  00A0               	movwf	?___lldiv
  2418  098D                     l410:
  2419  098D  0008               	return
  2420  098E                     __end_of___lldiv:
  2421                           
  2422                           	psect	text8
  2423  15E3                     __ptext8:	
  2424 ;; *************** function _clearLCD *****************
  2425 ;; Defined at:
  2426 ;;		line 44 in file "D:/UVG-IngenieriaElectronica/5to-Semestre/Electronica-Digital-2/mini-02/master.X/_LCD.c"
  2427 ;; Parameters:    Size  Location     Type
  2428 ;;		None
  2429 ;; Auto vars:     Size  Location     Type
  2430 ;;		None
  2431 ;; Return value:  Size  Location     Type
  2432 ;;                  1    wreg      void 
  2433 ;; Registers used:
  2434 ;;		wreg, status,2, status,0, pclath, cstack
  2435 ;; Tracked objects:
  2436 ;;		On entry : 0/0
  2437 ;;		On exit  : 0/0
  2438 ;;		Unchanged: 0/0
  2439 ;; Data sizes:     COMMON   BANK0   BANK1   BANK3   BANK2
  2440 ;;      Params:         0       0       0       0       0
  2441 ;;      Locals:         0       0       0       0       0
  2442 ;;      Temps:          0       0       0       0       0
  2443 ;;      Totals:         0       0       0       0       0
  2444 ;;Total ram usage:        0 bytes
  2445 ;; Hardware stack levels used: 1
  2446 ;; Hardware stack levels required when called: 5
  2447 ;; This function calls:
  2448 ;;		_setCmd
  2449 ;; This function is called by:
  2450 ;;		_main
  2451 ;; This function uses a non-reentrant model
  2452 ;;
  2453                           
  2454                           
  2455                           ;psect for function _clearLCD
  2456  15E3                     _clearLCD:
  2457  15E3                     l2944:	
  2458                           ;incstack = 0
  2459                           ; Regs used in _clearLCD: [wreg+status,2+status,0+pclath+cstack]
  2460                           
  2461                           
  2462                           ;D:/UVG-IngenieriaElectronica/5to-Semestre/Electronica-Digital-2/mini-02/master.X/_LCD.c
      +                          : 45:     setCmd(0);
  2463  15E3  3000               	movlw	0
  2464  15E4  160A  118A  2610  160A  118A  	fcall	_setCmd
  2465                           
  2466                           ;D:/UVG-IngenieriaElectronica/5to-Semestre/Electronica-Digital-2/mini-02/master.X/_LCD.c
      +                          : 46:     setCmd(1);
  2467  15E9  3001               	movlw	1
  2468  15EA  160A  118A  2610  160A  118A  	fcall	_setCmd
  2469  15EF                     l200:
  2470  15EF  0008               	return
  2471  15F0                     __end_of_clearLCD:
  2472                           
  2473                           	psect	text9
  2474  0C4C                     __ptext9:	
  2475 ;; *************** function _MPU6050_Read *****************
  2476 ;; Defined at:
  2477 ;;		line 54 in file "D:/UVG-IngenieriaElectronica/5to-Semestre/Electronica-Digital-2/mini-02/master.X/_MPU6050.c"
  2478 ;; Parameters:    Size  Location     Type
  2479 ;;		None
  2480 ;; Auto vars:     Size  Location     Type
  2481 ;;  t               2   24[BANK1 ] int 
  2482 ;;  T               2   22[BANK1 ] int 
  2483 ;;  Gz              2    0        int 
  2484 ;;  Gy              2    0        int 
  2485 ;;  Gx              2    0        int 
  2486 ;;  Az              2    0        int 
  2487 ;;  Ay              2    0        int 
  2488 ;;  Ax              2    0        int 
  2489 ;; Return value:  Size  Location     Type
  2490 ;;                  1    wreg      void 
  2491 ;; Registers used:
  2492 ;;		wreg, fsr0l, fsr0h, status,2, status,0, btemp+1, pclath, cstack
  2493 ;; Tracked objects:
  2494 ;;		On entry : 0/0
  2495 ;;		On exit  : 0/0
  2496 ;;		Unchanged: 0/0
  2497 ;; Data sizes:     COMMON   BANK0   BANK1   BANK3   BANK2
  2498 ;;      Params:         0       0       0       0       0
  2499 ;;      Locals:         0       0       4       0       0
  2500 ;;      Temps:          0       0       4       0       0
  2501 ;;      Totals:         0       0       8       0       0
  2502 ;;Total ram usage:        8 bytes
  2503 ;; Hardware stack levels used: 1
  2504 ;; Hardware stack levels required when called: 7
  2505 ;; This function calls:
  2506 ;;		_I2C_Master_Stop
  2507 ;;		_I2C_Master_Write
  2508 ;;		_I2C_Read
  2509 ;;		_I2C_Start
  2510 ;;		_Temp_Conversion
  2511 ;;		___fladd
  2512 ;;		___fldiv
  2513 ;;		___flmul
  2514 ;;		___fltol
  2515 ;;		___xxtofl
  2516 ;;		_setCursor
  2517 ;;		_txfunc
  2518 ;;		_writeString
  2519 ;; This function is called by:
  2520 ;;		_main
  2521 ;; This function uses a non-reentrant model
  2522 ;;
  2523                           
  2524                           
  2525                           ;psect for function _MPU6050_Read
  2526  0C4C                     _MPU6050_Read:
  2527  0C4C                     l2946:	
  2528                           ;incstack = 0
  2529                           ; Regs used in _MPU6050_Read: [wreg-fsr0h+status,2+status,0+btemp+1+pclath+cstack]
  2530                           
  2531                           
  2532                           ;D:/UVG-IngenieriaElectronica/5to-Semestre/Electronica-Digital-2/mini-02/master.X/_MPU60
      +                          50.c: 56:   int Ax,Ay,Az,Gx,Gy,Gz,T;;D:/UVG-IngenieriaElectronica/5to-Semestre/Electroni
      +                          ca-Digital-2/mini-02/master.X/_MPU6050.c: 58:   int t;;D:/UVG-IngenieriaElectronica/5to-
      +                          Semestre/Electronica-Digital-2/mini-02/master.X/_MPU6050.c: 60:   I2C_Start(0xD0);
  2533  0C4C  30D0               	movlw	208
  2534  0C4D  160A  118A  2626  120A  158A  	fcall	_I2C_Start
  2535                           
  2536                           ;D:/UVG-IngenieriaElectronica/5to-Semestre/Electronica-Digital-2/mini-02/master.X/_MPU60
      +                          50.c: 61:   I2C_Master_Write(0x3B);
  2537  0C52  303B               	movlw	59
  2538  0C53  1283               	bcf	3,5	;RP0=0, select bank0
  2539  0C54  1303               	bcf	3,6	;RP1=0, select bank0
  2540  0C55  00A0               	movwf	I2C_Master_Write@d
  2541  0C56  3000               	movlw	0
  2542  0C57  00A1               	movwf	I2C_Master_Write@d+1
  2543  0C58  160A  118A  25BF  120A  158A  	fcall	_I2C_Master_Write
  2544                           
  2545                           ;D:/UVG-IngenieriaElectronica/5to-Semestre/Electronica-Digital-2/mini-02/master.X/_MPU60
      +                          50.c: 62:   I2C_Master_Stop();
  2546  0C5D  160A  118A  2598  120A  158A  	fcall	_I2C_Master_Stop
  2547                           
  2548                           ;D:/UVG-IngenieriaElectronica/5to-Semestre/Electronica-Digital-2/mini-02/master.X/_MPU60
      +                          50.c: 63:   I2C_Start(0xD1);
  2549  0C62  30D1               	movlw	209
  2550  0C63  160A  118A  2626  120A  158A  	fcall	_I2C_Start
  2551  0C68                     l2948:
  2552  0C68  3000               	movlw	0
  2553  0C69  160A  118A  26F2  120A  158A  	fcall	_I2C_Read
  2554  0C6E  3000               	movlw	0
  2555  0C6F  160A  118A  26F2  120A  158A  	fcall	_I2C_Read
  2556  0C74                     l2950:
  2557  0C74  3000               	movlw	0
  2558  0C75  160A  118A  26F2  120A  158A  	fcall	_I2C_Read
  2559  0C7A  3000               	movlw	0
  2560  0C7B  160A  118A  26F2  120A  158A  	fcall	_I2C_Read
  2561  0C80                     l2952:
  2562  0C80  3000               	movlw	0
  2563  0C81  160A  118A  26F2  120A  158A  	fcall	_I2C_Read
  2564  0C86  3000               	movlw	0
  2565  0C87  160A  118A  26F2  120A  158A  	fcall	_I2C_Read
  2566  0C8C                     l2954:
  2567                           
  2568                           ;D:/UVG-IngenieriaElectronica/5to-Semestre/Electronica-Digital-2/mini-02/master.X/_MPU60
      +                          50.c: 67:   T = ((int)I2C_Read(0)<<8) | (int)I2C_Read(0);
  2569  0C8C  3000               	movlw	0
  2570  0C8D  160A  118A  26F2  120A  158A  	fcall	_I2C_Read
  2571  0C92  1683               	bsf	3,5	;RP0=1, select bank1
  2572  0C93  1303               	bcf	3,6	;RP1=0, select bank1
  2573  0C94  00B2               	movwf	??_MPU6050_Read^(0+128)
  2574  0C95  01B3               	clrf	(??_MPU6050_Read^(0+128)+1)
  2575  0C96  3000               	movlw	0
  2576  0C97  160A  118A  26F2  120A  158A  	fcall	_I2C_Read
  2577  0C9C  1683               	bsf	3,5	;RP0=1, select bank1
  2578  0C9D  1303               	bcf	3,6	;RP1=0, select bank1
  2579  0C9E  00B4               	movwf	(??_MPU6050_Read+2)^(0+128)
  2580  0C9F  01B5               	clrf	((??_MPU6050_Read+2)^(0+128)+1)
  2581  0CA0  0834               	movf	(??_MPU6050_Read+2)^(0+128),w
  2582  0CA1  00B5               	movwf	((??_MPU6050_Read+2)^(0+128)+1)
  2583  0CA2  01B4               	clrf	(??_MPU6050_Read+2)^(0+128)
  2584  0CA3  0832               	movf	??_MPU6050_Read^(0+128),w
  2585  0CA4  0434               	iorwf	(??_MPU6050_Read+2)^(0+128),w
  2586  0CA5  00B6               	movwf	MPU6050_Read@T^(0+128)
  2587  0CA6  0833               	movf	(??_MPU6050_Read+1)^(0+128),w
  2588  0CA7  0435               	iorwf	(??_MPU6050_Read+3)^(0+128),w
  2589  0CA8  00B7               	movwf	(MPU6050_Read@T+1)^(0+128)
  2590  0CA9                     l2956:
  2591  0CA9  3000               	movlw	0
  2592  0CAA  160A  118A  26F2  120A  158A  	fcall	_I2C_Read
  2593  0CAF  3000               	movlw	0
  2594  0CB0  160A  118A  26F2  120A  158A  	fcall	_I2C_Read
  2595  0CB5                     l2958:
  2596  0CB5  3000               	movlw	0
  2597  0CB6  160A  118A  26F2  120A  158A  	fcall	_I2C_Read
  2598  0CBB  3000               	movlw	0
  2599  0CBC  160A  118A  26F2  120A  158A  	fcall	_I2C_Read
  2600  0CC1                     l2960:
  2601  0CC1  3000               	movlw	0
  2602  0CC2  160A  118A  26F2  120A  158A  	fcall	_I2C_Read
  2603  0CC7  3001               	movlw	1
  2604  0CC8  160A  118A  26F2  120A  158A  	fcall	_I2C_Read
  2605  0CCD                     l2962:
  2606                           
  2607                           ;D:/UVG-IngenieriaElectronica/5to-Semestre/Electronica-Digital-2/mini-02/master.X/_MPU60
      +                          50.c: 71:   I2C_Master_Stop();
  2608  0CCD  160A  118A  2598  120A  158A  	fcall	_I2C_Master_Stop
  2609                           
  2610                           ;D:/UVG-IngenieriaElectronica/5to-Semestre/Electronica-Digital-2/mini-02/master.X/_MPU60
      +                          50.c: 79:   t = (((int)T/340.00)+36.53) * 10;
  2611  0CD2  1683               	bsf	3,5	;RP0=1, select bank1
  2612  0CD3  1303               	bcf	3,6	;RP1=0, select bank1
  2613  0CD4  0836               	movf	MPU6050_Read@T^(0+128),w
  2614  0CD5  1283               	bcf	3,5	;RP0=0, select bank0
  2615  0CD6  1303               	bcf	3,6	;RP1=0, select bank0
  2616  0CD7  00A0               	movwf	___xxtofl@val
  2617  0CD8  1683               	bsf	3,5	;RP0=1, select bank1
  2618  0CD9  1303               	bcf	3,6	;RP1=0, select bank1
  2619  0CDA  0837               	movf	(MPU6050_Read@T+1)^(0+128),w
  2620  0CDB  1283               	bcf	3,5	;RP0=0, select bank0
  2621  0CDC  1303               	bcf	3,6	;RP1=0, select bank0
  2622  0CDD  00A1               	movwf	___xxtofl@val+1
  2623  0CDE  3000               	movlw	0
  2624  0CDF  1BA1               	btfsc	___xxtofl@val+1,7
  2625  0CE0  30FF               	movlw	255
  2626  0CE1  00A2               	movwf	___xxtofl@val+2
  2627  0CE2  00A3               	movwf	___xxtofl@val+3
  2628  0CE3  3001               	movlw	1
  2629  0CE4  120A  158A  22AD  120A  158A  	fcall	___xxtofl
  2630  0CE9  1283               	bcf	3,5	;RP0=0, select bank0
  2631  0CEA  1303               	bcf	3,6	;RP1=0, select bank0
  2632  0CEB  0823               	movf	?___xxtofl+3,w
  2633  0CEC  00B5               	movwf	___fldiv@b+3
  2634  0CED  0822               	movf	?___xxtofl+2,w
  2635  0CEE  00B4               	movwf	___fldiv@b+2
  2636  0CEF  0821               	movf	?___xxtofl+1,w
  2637  0CF0  00B3               	movwf	___fldiv@b+1
  2638  0CF1  0820               	movf	?___xxtofl,w
  2639  0CF2  00B2               	movwf	___fldiv@b
  2640  0CF3  3043               	movlw	67
  2641  0CF4  00B1               	movwf	___fldiv@a+3
  2642  0CF5  30AA               	movlw	170
  2643  0CF6  00B0               	movwf	___fldiv@a+2
  2644  0CF7  3000               	movlw	0
  2645  0CF8  00AF               	movwf	___fldiv@a+1
  2646  0CF9  3000               	movlw	0
  2647  0CFA  00AE               	movwf	___fldiv@a
  2648  0CFB  120A  118A  2580  120A  158A  	fcall	___fldiv
  2649  0D00  1283               	bcf	3,5	;RP0=0, select bank0
  2650  0D01  1303               	bcf	3,6	;RP1=0, select bank0
  2651  0D02  0831               	movf	?___fldiv+3,w
  2652  0D03  00CF               	movwf	___fladd@a+3
  2653  0D04  0830               	movf	?___fldiv+2,w
  2654  0D05  00CE               	movwf	___fladd@a+2
  2655  0D06  082F               	movf	?___fldiv+1,w
  2656  0D07  00CD               	movwf	___fladd@a+1
  2657  0D08  082E               	movf	?___fldiv,w
  2658  0D09  00CC               	movwf	___fladd@a
  2659  0D0A  3042               	movlw	66
  2660  0D0B  00CB               	movwf	___fladd@b+3
  2661  0D0C  3012               	movlw	18
  2662  0D0D  00CA               	movwf	___fladd@b+2
  2663  0D0E  301E               	movlw	30
  2664  0D0F  00C9               	movwf	___fladd@b+1
  2665  0D10  30B8               	movlw	184
  2666  0D11  00C8               	movwf	___fladd@b
  2667  0D12  120A  158A  2578  120A  158A  	fcall	___fladd
  2668  0D17  1283               	bcf	3,5	;RP0=0, select bank0
  2669  0D18  1303               	bcf	3,6	;RP1=0, select bank0
  2670  0D19  084B               	movf	?___fladd+3,w
  2671  0D1A  00E3               	movwf	___flmul@a+3
  2672  0D1B  084A               	movf	?___fladd+2,w
  2673  0D1C  00E2               	movwf	___flmul@a+2
  2674  0D1D  0849               	movf	?___fladd+1,w
  2675  0D1E  00E1               	movwf	___flmul@a+1
  2676  0D1F  0848               	movf	?___fladd,w
  2677  0D20  00E0               	movwf	___flmul@a
  2678  0D21  3041               	movlw	65
  2679  0D22  00DF               	movwf	___flmul@b+3
  2680  0D23  3020               	movlw	32
  2681  0D24  00DE               	movwf	___flmul@b+2
  2682  0D25  3000               	movlw	0
  2683  0D26  00DD               	movwf	___flmul@b+1
  2684  0D27  3000               	movlw	0
  2685  0D28  00DC               	movwf	___flmul@b
  2686  0D29  120A  118A  2021  120A  158A  	fcall	___flmul
  2687  0D2E  1283               	bcf	3,5	;RP0=0, select bank0
  2688  0D2F  1303               	bcf	3,6	;RP1=0, select bank0
  2689  0D30  085F               	movf	?___flmul+3,w
  2690  0D31  00EC               	movwf	___fltol@f1+3
  2691  0D32  085E               	movf	?___flmul+2,w
  2692  0D33  00EB               	movwf	___fltol@f1+2
  2693  0D34  085D               	movf	?___flmul+1,w
  2694  0D35  00EA               	movwf	___fltol@f1+1
  2695  0D36  085C               	movf	?___flmul,w
  2696  0D37  00E9               	movwf	___fltol@f1
  2697  0D38  120A  118A  275D  120A  158A  	fcall	___fltol
  2698  0D3D  1283               	bcf	3,5	;RP0=0, select bank0
  2699  0D3E  1303               	bcf	3,6	;RP1=0, select bank0
  2700  0D3F  086A               	movf	?___fltol+1,w
  2701  0D40  1683               	bsf	3,5	;RP0=1, select bank1
  2702  0D41  1303               	bcf	3,6	;RP1=0, select bank1
  2703  0D42  00B9               	movwf	(MPU6050_Read@t+1)^(0+128)
  2704  0D43  1283               	bcf	3,5	;RP0=0, select bank0
  2705  0D44  1303               	bcf	3,6	;RP1=0, select bank0
  2706  0D45  0869               	movf	?___fltol,w
  2707  0D46  1683               	bsf	3,5	;RP0=1, select bank1
  2708  0D47  1303               	bcf	3,6	;RP1=0, select bank1
  2709  0D48  00B8               	movwf	MPU6050_Read@t^(0+128)
  2710  0D49                     l2964:
  2711                           
  2712                           ;D:/UVG-IngenieriaElectronica/5to-Semestre/Electronica-Digital-2/mini-02/master.X/_MPU60
      +                          50.c: 80:   PORTA = t;
  2713  0D49  0838               	movf	MPU6050_Read@t^(0+128),w
  2714  0D4A  1283               	bcf	3,5	;RP0=0, select bank0
  2715  0D4B  1303               	bcf	3,6	;RP1=0, select bank0
  2716  0D4C  0085               	movwf	5	;volatile
  2717  0D4D                     l2966:
  2718                           
  2719                           ;D:/UVG-IngenieriaElectronica/5to-Semestre/Electronica-Digital-2/mini-02/master.X/_MPU60
      +                          50.c: 81:   setCursor(2,0);
  2720  0D4D  01A3               	clrf	setCursor@y
  2721  0D4E  3002               	movlw	2
  2722  0D4F  160A  118A  267F  120A  158A  	fcall	_setCursor
  2723  0D54                     l2968:
  2724                           
  2725                           ;D:/UVG-IngenieriaElectronica/5to-Semestre/Electronica-Digital-2/mini-02/master.X/_MPU60
      +                          50.c: 82:   writeString("TEMP: ");
  2726  0D54  3001               	movlw	(low ((STR_6-__stringbase)| (0+32768)))& (0+255)
  2727  0D55  160A  118A  26A5  120A  158A  	fcall	_writeString
  2728  0D5A                     l2970:
  2729                           
  2730                           ;D:/UVG-IngenieriaElectronica/5to-Semestre/Electronica-Digital-2/mini-02/master.X/_MPU60
      +                          50.c: 83:   Temp_Conversion(t);
  2731  0D5A  1683               	bsf	3,5	;RP0=1, select bank1
  2732  0D5B  1303               	bcf	3,6	;RP1=0, select bank1
  2733  0D5C  0839               	movf	(MPU6050_Read@t+1)^(0+128),w
  2734  0D5D  1283               	bcf	3,5	;RP0=0, select bank0
  2735  0D5E  1303               	bcf	3,6	;RP1=0, select bank0
  2736  0D5F  00B1               	movwf	Temp_Conversion@_temp+1
  2737  0D60  1683               	bsf	3,5	;RP0=1, select bank1
  2738  0D61  1303               	bcf	3,6	;RP1=0, select bank1
  2739  0D62  0838               	movf	MPU6050_Read@t^(0+128),w
  2740  0D63  1283               	bcf	3,5	;RP0=0, select bank0
  2741  0D64  1303               	bcf	3,6	;RP1=0, select bank0
  2742  0D65  00B0               	movwf	Temp_Conversion@_temp
  2743  0D66  120A  158A  21F7  120A  158A  	fcall	_Temp_Conversion
  2744  0D6B                     l2972:
  2745                           
  2746                           ;D:/UVG-IngenieriaElectronica/5to-Semestre/Electronica-Digital-2/mini-02/master.X/_MPU60
      +                          50.c: 84:   writeString(" C");
  2747  0D6B  302B               	movlw	(low ((STR_7-__stringbase)| (0+32768)))& (0+255)
  2748  0D6C  160A  118A  26A5  120A  158A  	fcall	_writeString
  2749  0D71                     l2974:
  2750                           
  2751                           ;D:/UVG-IngenieriaElectronica/5to-Semestre/Electronica-Digital-2/mini-02/master.X/_MPU60
      +                          50.c: 85:   txfunc(',');
  2752  0D71  302C               	movlw	44
  2753  0D72  160A  118A  25F0  120A  158A  	fcall	_txfunc
  2754  0D77                     l285:
  2755  0D77  0008               	return
  2756  0D78                     __end_of_MPU6050_Read:
  2757                           
  2758                           	psect	text10
  2759  16A5                     __ptext10:	
  2760 ;; *************** function _writeString *****************
  2761 ;; Defined at:
  2762 ;;		line 57 in file "D:/UVG-IngenieriaElectronica/5to-Semestre/Electronica-Digital-2/mini-02/master.X/_LCD.c"
  2763 ;; Parameters:    Size  Location     Type
  2764 ;;  a               1    wreg     PTR unsigned char 
  2765 ;;		 -> STR_7(3), STR_6(7), STR_5(7), STR_4(7), 
  2766 ;;		 -> STR_3(7), STR_2(7), STR_1(7), 
  2767 ;; Auto vars:     Size  Location     Type
  2768 ;;  a               1    4[BANK0 ] PTR unsigned char 
  2769 ;;		 -> STR_7(3), STR_6(7), STR_5(7), STR_4(7), 
  2770 ;;		 -> STR_3(7), STR_2(7), STR_1(7), 
  2771 ;;  i               1    3[BANK0 ] unsigned char 
  2772 ;; Return value:  Size  Location     Type
  2773 ;;                  1    wreg      void 
  2774 ;; Registers used:
  2775 ;;		wreg, fsr0l, fsr0h, status,2, status,0, pclath, cstack
  2776 ;; Tracked objects:
  2777 ;;		On entry : 0/0
  2778 ;;		On exit  : 0/0
  2779 ;;		Unchanged: 0/0
  2780 ;; Data sizes:     COMMON   BANK0   BANK1   BANK3   BANK2
  2781 ;;      Params:         0       0       0       0       0
  2782 ;;      Locals:         0       2       0       0       0
  2783 ;;      Temps:          0       1       0       0       0
  2784 ;;      Totals:         0       3       0       0       0
  2785 ;;Total ram usage:        3 bytes
  2786 ;; Hardware stack levels used: 1
  2787 ;; Hardware stack levels required when called: 5
  2788 ;; This function calls:
  2789 ;;		_writeChar
  2790 ;; This function is called by:
  2791 ;;		_main
  2792 ;;		_MPU6050_Read
  2793 ;; This function uses a non-reentrant model
  2794 ;;
  2795                           
  2796                           
  2797                           ;psect for function _writeString
  2798  16A5                     _writeString:
  2799                           
  2800                           ;incstack = 0
  2801                           ; Regs used in _writeString: [wreg-fsr0h+status,2+status,0+pclath+cstack]
  2802                           ;writeString@a stored from wreg
  2803  16A5  1283               	bcf	3,5	;RP0=0, select bank0
  2804  16A6  1303               	bcf	3,6	;RP1=0, select bank0
  2805  16A7  00A4               	movwf	writeString@a
  2806  16A8                     l2218:
  2807                           
  2808                           ;D:/UVG-IngenieriaElectronica/5to-Semestre/Electronica-Digital-2/mini-02/master.X/_LCD.c
      +                          : 58:     char i;;D:/UVG-IngenieriaElectronica/5to-Semestre/Electronica-Digital-2/mini-0
      +                          2/master.X/_LCD.c: 59:     for (i = 0; a[i] != '\0'; i++) {
  2809  16A8  01A3               	clrf	writeString@i
  2810  16A9  2EBD               	goto	l2224
  2811  16AA                     l2220:
  2812                           
  2813                           ;D:/UVG-IngenieriaElectronica/5to-Semestre/Electronica-Digital-2/mini-02/master.X/_LCD.c
      +                          : 60:         writeChar(a[i]);
  2814  16AA  0823               	movf	writeString@i,w
  2815  16AB  0724               	addwf	writeString@a,w
  2816  16AC  0084               	movwf	4
  2817  16AD  160A  118A  2000  160A  118A  	fcall	stringdir
  2818  16B2  160A  118A  25FE  160A  118A  	fcall	_writeChar
  2819  16B7                     l2222:
  2820                           
  2821                           ;D:/UVG-IngenieriaElectronica/5to-Semestre/Electronica-Digital-2/mini-02/master.X/_LCD.c
      +                          : 61:     }
  2822  16B7  3001               	movlw	1
  2823  16B8  1283               	bcf	3,5	;RP0=0, select bank0
  2824  16B9  1303               	bcf	3,6	;RP1=0, select bank0
  2825  16BA  00A2               	movwf	??_writeString
  2826  16BB  0822               	movf	??_writeString,w
  2827  16BC  07A3               	addwf	writeString@i,f
  2828  16BD                     l2224:
  2829  16BD  0823               	movf	writeString@i,w
  2830  16BE  0724               	addwf	writeString@a,w
  2831  16BF  0084               	movwf	4
  2832  16C0  160A  118A  2000  160A  118A  	fcall	stringdir
  2833  16C5  3A00               	xorlw	0
  2834  16C6  1D03               	skipz
  2835  16C7  2EC9               	goto	u2281
  2836  16C8  2ECA               	goto	u2280
  2837  16C9                     u2281:
  2838  16C9  2EAA               	goto	l2220
  2839  16CA                     u2280:
  2840  16CA                     l209:
  2841  16CA  0008               	return
  2842  16CB                     __end_of_writeString:
  2843                           
  2844                           	psect	text11
  2845  167F                     __ptext11:	
  2846 ;; *************** function _setCursor *****************
  2847 ;; Defined at:
  2848 ;;		line 32 in file "D:/UVG-IngenieriaElectronica/5to-Semestre/Electronica-Digital-2/mini-02/master.X/_LCD.c"
  2849 ;; Parameters:    Size  Location     Type
  2850 ;;  x               1    wreg     unsigned char 
  2851 ;;  y               1    3[BANK0 ] unsigned char 
  2852 ;; Auto vars:     Size  Location     Type
  2853 ;;  x               1    5[BANK0 ] unsigned char 
  2854 ;;  a               1    6[BANK0 ] unsigned char 
  2855 ;; Return value:  Size  Location     Type
  2856 ;;                  1    wreg      void 
  2857 ;; Registers used:
  2858 ;;		wreg, status,2, status,0, pclath, cstack
  2859 ;; Tracked objects:
  2860 ;;		On entry : 0/0
  2861 ;;		On exit  : 0/0
  2862 ;;		Unchanged: 0/0
  2863 ;; Data sizes:     COMMON   BANK0   BANK1   BANK3   BANK2
  2864 ;;      Params:         0       1       0       0       0
  2865 ;;      Locals:         0       2       0       0       0
  2866 ;;      Temps:          0       1       0       0       0
  2867 ;;      Totals:         0       4       0       0       0
  2868 ;;Total ram usage:        4 bytes
  2869 ;; Hardware stack levels used: 1
  2870 ;; Hardware stack levels required when called: 5
  2871 ;; This function calls:
  2872 ;;		_setCmd
  2873 ;; This function is called by:
  2874 ;;		_main
  2875 ;;		_MPU6050_Read
  2876 ;; This function uses a non-reentrant model
  2877 ;;
  2878                           
  2879                           
  2880                           ;psect for function _setCursor
  2881  167F                     _setCursor:
  2882                           
  2883                           ;incstack = 0
  2884                           ; Regs used in _setCursor: [wreg+status,2+status,0+pclath+cstack]
  2885                           ;setCursor@x stored from wreg
  2886  167F  1283               	bcf	3,5	;RP0=0, select bank0
  2887  1680  1303               	bcf	3,6	;RP1=0, select bank0
  2888  1681  00A5               	movwf	setCursor@x
  2889  1682                     l2206:
  2890                           
  2891                           ;D:/UVG-IngenieriaElectronica/5to-Semestre/Electronica-Digital-2/mini-02/master.X/_LCD.c
      +                          : 33:     char a;;D:/UVG-IngenieriaElectronica/5to-Semestre/Electronica-Digital-2/mini-0
      +                          2/master.X/_LCD.c: 34:     if (x == 1) {
  2892  1682  0325               	decf	setCursor@x,w
  2893  1683  1D03               	btfss	3,2
  2894  1684  2E86               	goto	u2261
  2895  1685  2E87               	goto	u2260
  2896  1686                     u2261:
  2897  1686  2E93               	goto	l2212
  2898  1687                     u2260:
  2899  1687                     l2208:
  2900                           
  2901                           ;D:/UVG-IngenieriaElectronica/5to-Semestre/Electronica-Digital-2/mini-02/master.X/_LCD.c
      +                          : 35:         a = 0x80 + y - 1;
  2902  1687  0823               	movf	setCursor@y,w
  2903  1688  3E7F               	addlw	127
  2904  1689  00A4               	movwf	??_setCursor
  2905  168A  0824               	movf	??_setCursor,w
  2906  168B  00A6               	movwf	setCursor@a
  2907  168C                     l2210:
  2908                           
  2909                           ;D:/UVG-IngenieriaElectronica/5to-Semestre/Electronica-Digital-2/mini-02/master.X/_LCD.c
      +                          : 36:         setCmd(a);
  2910  168C  0826               	movf	setCursor@a,w
  2911  168D  160A  118A  2610  160A  118A  	fcall	_setCmd
  2912                           
  2913                           ;D:/UVG-IngenieriaElectronica/5to-Semestre/Electronica-Digital-2/mini-02/master.X/_LCD.c
      +                          : 37:     }
  2914  1692  2EA4               	goto	l197
  2915  1693                     l2212:
  2916  1693  3002               	movlw	2
  2917  1694  0625               	xorwf	setCursor@x,w
  2918  1695  1D03               	btfss	3,2
  2919  1696  2E98               	goto	u2271
  2920  1697  2E99               	goto	u2270
  2921  1698                     u2271:
  2922  1698  2EA4               	goto	l197
  2923  1699                     u2270:
  2924  1699                     l2214:
  2925                           
  2926                           ;D:/UVG-IngenieriaElectronica/5to-Semestre/Electronica-Digital-2/mini-02/master.X/_LCD.c
      +                          : 39:         a = 0xC0 + y - 1;
  2927  1699  0823               	movf	setCursor@y,w
  2928  169A  3EBF               	addlw	191
  2929  169B  00A4               	movwf	??_setCursor
  2930  169C  0824               	movf	??_setCursor,w
  2931  169D  00A6               	movwf	setCursor@a
  2932  169E                     l2216:
  2933                           
  2934                           ;D:/UVG-IngenieriaElectronica/5to-Semestre/Electronica-Digital-2/mini-02/master.X/_LCD.c
      +                          : 40:         setCmd(a);
  2935  169E  0826               	movf	setCursor@a,w
  2936  169F  160A  118A  2610  160A  118A  	fcall	_setCmd
  2937  16A4                     l197:
  2938  16A4  0008               	return
  2939  16A5                     __end_of_setCursor:
  2940                           
  2941                           	psect	text12
  2942  1610                     __ptext12:	
  2943 ;; *************** function _setCmd *****************
  2944 ;; Defined at:
  2945 ;;		line 24 in file "D:/UVG-IngenieriaElectronica/5to-Semestre/Electronica-Digital-2/mini-02/master.X/_LCD.c"
  2946 ;; Parameters:    Size  Location     Type
  2947 ;;  a               1    wreg     unsigned char 
  2948 ;; Auto vars:     Size  Location     Type
  2949 ;;  a               1    2[BANK0 ] unsigned char 
  2950 ;; Return value:  Size  Location     Type
  2951 ;;                  1    wreg      void 
  2952 ;; Registers used:
  2953 ;;		wreg
  2954 ;; Tracked objects:
  2955 ;;		On entry : 0/0
  2956 ;;		On exit  : 0/0
  2957 ;;		Unchanged: 0/0
  2958 ;; Data sizes:     COMMON   BANK0   BANK1   BANK3   BANK2
  2959 ;;      Params:         0       0       0       0       0
  2960 ;;      Locals:         0       1       0       0       0
  2961 ;;      Temps:          0       2       0       0       0
  2962 ;;      Totals:         0       3       0       0       0
  2963 ;;Total ram usage:        3 bytes
  2964 ;; Hardware stack levels used: 1
  2965 ;; Hardware stack levels required when called: 4
  2966 ;; This function calls:
  2967 ;;		Nothing
  2968 ;; This function is called by:
  2969 ;;		_initLCD
  2970 ;;		_setCursor
  2971 ;;		_clearLCD
  2972 ;; This function uses a non-reentrant model
  2973 ;;
  2974                           
  2975                           
  2976                           ;psect for function _setCmd
  2977  1610                     _setCmd:
  2978                           
  2979                           ;incstack = 0
  2980                           ; Regs used in _setCmd: [wreg]
  2981                           ;setCmd@a stored from wreg
  2982  1610  1283               	bcf	3,5	;RP0=0, select bank0
  2983  1611  1303               	bcf	3,6	;RP1=0, select bank0
  2984  1612  00A2               	movwf	setCmd@a
  2985  1613                     l2056:
  2986                           
  2987                           ;D:/UVG-IngenieriaElectronica/5to-Semestre/Electronica-Digital-2/mini-02/master.X/_LCD.c
      +                          : 25:     PORTBbits.RB0 = 0;
  2988  1613  1006               	bcf	6,0	;volatile
  2989  1614                     l2058:
  2990                           
  2991                           ;D:/UVG-IngenieriaElectronica/5to-Semestre/Electronica-Digital-2/mini-02/master.X/_LCD.c
      +                          : 26:     PORTD = a;
  2992  1614  0822               	movf	setCmd@a,w
  2993  1615  0088               	movwf	8	;volatile
  2994  1616                     l2060:
  2995                           
  2996                           ;D:/UVG-IngenieriaElectronica/5to-Semestre/Electronica-Digital-2/mini-02/master.X/_LCD.c
      +                          : 27:     PORTBbits.RB1 = 1;
  2997  1616  1486               	bsf	6,1	;volatile
  2998                           
  2999                           ;D:/UVG-IngenieriaElectronica/5to-Semestre/Electronica-Digital-2/mini-02/master.X/_LCD.c
      +                          : 28:     _delay((unsigned long)((4)*(8000000/4000.0)));
  3000  1617  300B               	movlw	11
  3001  1618  1283               	bcf	3,5	;RP0=0, select bank0
  3002  1619  1303               	bcf	3,6	;RP1=0, select bank0
  3003  161A  00A1               	movwf	??_setCmd+1
  3004  161B  3061               	movlw	97
  3005  161C  00A0               	movwf	??_setCmd
  3006  161D                     u3827:
  3007  161D  0BA0               	decfsz	??_setCmd,f
  3008  161E  2E1D               	goto	u3827
  3009  161F  0BA1               	decfsz	??_setCmd+1,f
  3010  1620  2E1D               	goto	u3827
  3011  1621  2E22               	nop2
  3012  1622                     l2062:
  3013                           
  3014                           ;D:/UVG-IngenieriaElectronica/5to-Semestre/Electronica-Digital-2/mini-02/master.X/_LCD.c
      +                          : 29:     PORTBbits.RB1 = 0;
  3015  1622  1283               	bcf	3,5	;RP0=0, select bank0
  3016  1623  1303               	bcf	3,6	;RP1=0, select bank0
  3017  1624  1086               	bcf	6,1	;volatile
  3018  1625                     l191:
  3019  1625  0008               	return
  3020  1626                     __end_of_setCmd:
  3021                           
  3022                           	psect	text13
  3023  0AAD                     __ptext13:	
  3024 ;; *************** function ___xxtofl *****************
  3025 ;; Defined at:
  3026 ;;		line 10 in file "C:\Program Files\Microchip\xc8\v2.32\pic\sources\c90\common\xxtofl.c"
  3027 ;; Parameters:    Size  Location     Type
  3028 ;;  sign            1    wreg     unsigned char 
  3029 ;;  val             4    0[BANK0 ] long 
  3030 ;; Auto vars:     Size  Location     Type
  3031 ;;  sign            1    8[BANK0 ] unsigned char 
  3032 ;;  arg             4   10[BANK0 ] unsigned long 
  3033 ;;  exp             1    9[BANK0 ] unsigned char 
  3034 ;; Return value:  Size  Location     Type
  3035 ;;                  4    0[BANK0 ] unsigned char 
  3036 ;; Registers used:
  3037 ;;		wreg, status,2, status,0
  3038 ;; Tracked objects:
  3039 ;;		On entry : 0/0
  3040 ;;		On exit  : 0/0
  3041 ;;		Unchanged: 0/0
  3042 ;; Data sizes:     COMMON   BANK0   BANK1   BANK3   BANK2
  3043 ;;      Params:         0       4       0       0       0
  3044 ;;      Locals:         0       6       0       0       0
  3045 ;;      Temps:          0       4       0       0       0
  3046 ;;      Totals:         0      14       0       0       0
  3047 ;;Total ram usage:       14 bytes
  3048 ;; Hardware stack levels used: 1
  3049 ;; Hardware stack levels required when called: 4
  3050 ;; This function calls:
  3051 ;;		Nothing
  3052 ;; This function is called by:
  3053 ;;		_MPU6050_Read
  3054 ;; This function uses a non-reentrant model
  3055 ;;
  3056                           
  3057                           
  3058                           ;psect for function ___xxtofl
  3059  0AAD                     ___xxtofl:
  3060                           
  3061                           ;incstack = 0
  3062                           ; Regs used in ___xxtofl: [wreg+status,2+status,0]
  3063                           ;___xxtofl@sign stored from wreg
  3064  0AAD  1283               	bcf	3,5	;RP0=0, select bank0
  3065  0AAE  1303               	bcf	3,6	;RP1=0, select bank0
  3066  0AAF  00A8               	movwf	___xxtofl@sign
  3067  0AB0                     l2868:
  3068  0AB0  0828               	movf	___xxtofl@sign,w
  3069  0AB1  1903               	btfsc	3,2
  3070  0AB2  2AB4               	goto	u3541
  3071  0AB3  2AB5               	goto	u3540
  3072  0AB4                     u3541:
  3073  0AB4  2AC9               	goto	l2874
  3074  0AB5                     u3540:
  3075  0AB5                     l2870:
  3076  0AB5  1FA3               	btfss	___xxtofl@val+3,7
  3077  0AB6  2AB8               	goto	u3551
  3078  0AB7  2AB9               	goto	u3550
  3079  0AB8                     u3551:
  3080  0AB8  2AC9               	goto	l2874
  3081  0AB9                     u3550:
  3082  0AB9                     l2872:
  3083  0AB9  0920               	comf	___xxtofl@val,w
  3084  0ABA  00AA               	movwf	___xxtofl@arg
  3085  0ABB  0921               	comf	___xxtofl@val+1,w
  3086  0ABC  00AB               	movwf	___xxtofl@arg+1
  3087  0ABD  0922               	comf	___xxtofl@val+2,w
  3088  0ABE  00AC               	movwf	___xxtofl@arg+2
  3089  0ABF  0923               	comf	___xxtofl@val+3,w
  3090  0AC0  00AD               	movwf	___xxtofl@arg+3
  3091  0AC1  0AAA               	incf	___xxtofl@arg,f
  3092  0AC2  1903               	skipnz
  3093  0AC3  0AAB               	incf	___xxtofl@arg+1,f
  3094  0AC4  1903               	skipnz
  3095  0AC5  0AAC               	incf	___xxtofl@arg+2,f
  3096  0AC6  1903               	skipnz
  3097  0AC7  0AAD               	incf	___xxtofl@arg+3,f
  3098  0AC8  2AD1               	goto	l807
  3099  0AC9                     l2874:
  3100  0AC9  0823               	movf	___xxtofl@val+3,w
  3101  0ACA  00AD               	movwf	___xxtofl@arg+3
  3102  0ACB  0822               	movf	___xxtofl@val+2,w
  3103  0ACC  00AC               	movwf	___xxtofl@arg+2
  3104  0ACD  0821               	movf	___xxtofl@val+1,w
  3105  0ACE  00AB               	movwf	___xxtofl@arg+1
  3106  0ACF  0820               	movf	___xxtofl@val,w
  3107  0AD0  00AA               	movwf	___xxtofl@arg
  3108  0AD1                     l807:
  3109  0AD1  0823               	movf	___xxtofl@val+3,w
  3110  0AD2  0422               	iorwf	___xxtofl@val+2,w
  3111  0AD3  0421               	iorwf	___xxtofl@val+1,w
  3112  0AD4  0420               	iorwf	___xxtofl@val,w
  3113  0AD5  1D03               	skipz
  3114  0AD6  2AD8               	goto	u3561
  3115  0AD7  2AD9               	goto	u3560
  3116  0AD8                     u3561:
  3117  0AD8  2AE2               	goto	l2880
  3118  0AD9                     u3560:
  3119  0AD9                     l2876:
  3120  0AD9  3000               	movlw	0
  3121  0ADA  00A3               	movwf	?___xxtofl+3
  3122  0ADB  3000               	movlw	0
  3123  0ADC  00A2               	movwf	?___xxtofl+2
  3124  0ADD  3000               	movlw	0
  3125  0ADE  00A1               	movwf	?___xxtofl+1
  3126  0ADF  3000               	movlw	0
  3127  0AE0  00A0               	movwf	?___xxtofl
  3128  0AE1  2B68               	goto	l809
  3129  0AE2                     l2880:
  3130  0AE2  3096               	movlw	150
  3131  0AE3  00A4               	movwf	??___xxtofl
  3132  0AE4  0824               	movf	??___xxtofl,w
  3133  0AE5  00A9               	movwf	___xxtofl@exp
  3134  0AE6  2AF4               	goto	l2884
  3135  0AE7                     l2882:
  3136  0AE7  3001               	movlw	1
  3137  0AE8  00A4               	movwf	??___xxtofl
  3138  0AE9  0824               	movf	??___xxtofl,w
  3139  0AEA  07A9               	addwf	___xxtofl@exp,f
  3140  0AEB  3001               	movlw	1
  3141  0AEC                     u3575:
  3142  0AEC  1003               	clrc
  3143  0AED  0CAD               	rrf	___xxtofl@arg+3,f
  3144  0AEE  0CAC               	rrf	___xxtofl@arg+2,f
  3145  0AEF  0CAB               	rrf	___xxtofl@arg+1,f
  3146  0AF0  0CAA               	rrf	___xxtofl@arg,f
  3147  0AF1  3EFF               	addlw	-1
  3148  0AF2  1D03               	skipz
  3149  0AF3  2AEC               	goto	u3575
  3150  0AF4                     l2884:
  3151  0AF4  30FE               	movlw	254
  3152  0AF5  052D               	andwf	___xxtofl@arg+3,w
  3153  0AF6  1D03               	btfss	3,2
  3154  0AF7  2AF9               	goto	u3581
  3155  0AF8  2AFA               	goto	u3580
  3156  0AF9                     u3581:
  3157  0AF9  2AE7               	goto	l2882
  3158  0AFA                     u3580:
  3159  0AFA  2B16               	goto	l813
  3160  0AFB                     l2886:
  3161  0AFB  3001               	movlw	1
  3162  0AFC  00A4               	movwf	??___xxtofl
  3163  0AFD  0824               	movf	??___xxtofl,w
  3164  0AFE  07A9               	addwf	___xxtofl@exp,f
  3165  0AFF                     l2888:
  3166  0AFF  3001               	movlw	1
  3167  0B00  07AA               	addwf	___xxtofl@arg,f
  3168  0B01  3000               	movlw	0
  3169  0B02  1803               	skipnc
  3170  0B03  3001               	movlw	1
  3171  0B04  07AB               	addwf	___xxtofl@arg+1,f
  3172  0B05  3000               	movlw	0
  3173  0B06  1803               	skipnc
  3174  0B07  3001               	movlw	1
  3175  0B08  07AC               	addwf	___xxtofl@arg+2,f
  3176  0B09  3000               	movlw	0
  3177  0B0A  1803               	skipnc
  3178  0B0B  3001               	movlw	1
  3179  0B0C  07AD               	addwf	___xxtofl@arg+3,f
  3180  0B0D                     l2890:
  3181  0B0D  3001               	movlw	1
  3182  0B0E                     u3595:
  3183  0B0E  1003               	clrc
  3184  0B0F  0CAD               	rrf	___xxtofl@arg+3,f
  3185  0B10  0CAC               	rrf	___xxtofl@arg+2,f
  3186  0B11  0CAB               	rrf	___xxtofl@arg+1,f
  3187  0B12  0CAA               	rrf	___xxtofl@arg,f
  3188  0B13  3EFF               	addlw	-1
  3189  0B14  1D03               	skipz
  3190  0B15  2B0E               	goto	u3595
  3191  0B16                     l813:
  3192  0B16  30FF               	movlw	255
  3193  0B17  052D               	andwf	___xxtofl@arg+3,w
  3194  0B18  1D03               	btfss	3,2
  3195  0B19  2B1B               	goto	u3601
  3196  0B1A  2B1C               	goto	u3600
  3197  0B1B                     u3601:
  3198  0B1B  2AFB               	goto	l2886
  3199  0B1C                     u3600:
  3200  0B1C  2B28               	goto	l2894
  3201  0B1D                     l2892:
  3202  0B1D  3001               	movlw	1
  3203  0B1E  02A9               	subwf	___xxtofl@exp,f
  3204  0B1F  3001               	movlw	1
  3205  0B20  00A4               	movwf	??___xxtofl
  3206  0B21                     u3615:
  3207  0B21  1003               	clrc
  3208  0B22  0DAA               	rlf	___xxtofl@arg,f
  3209  0B23  0DAB               	rlf	___xxtofl@arg+1,f
  3210  0B24  0DAC               	rlf	___xxtofl@arg+2,f
  3211  0B25  0DAD               	rlf	___xxtofl@arg+3,f
  3212  0B26  0BA4               	decfsz	??___xxtofl,f
  3213  0B27  2B21               	goto	u3615
  3214  0B28                     l2894:
  3215  0B28  1BAC               	btfsc	___xxtofl@arg+2,7
  3216  0B29  2B2B               	goto	u3621
  3217  0B2A  2B2C               	goto	u3620
  3218  0B2B                     u3621:
  3219  0B2B  2B32               	goto	l820
  3220  0B2C                     u3620:
  3221  0B2C                     l2896:
  3222  0B2C  3002               	movlw	2
  3223  0B2D  0229               	subwf	___xxtofl@exp,w
  3224  0B2E  1803               	skipnc
  3225  0B2F  2B31               	goto	u3631
  3226  0B30  2B32               	goto	u3630
  3227  0B31                     u3631:
  3228  0B31  2B1D               	goto	l2892
  3229  0B32                     u3630:
  3230  0B32                     l820:
  3231  0B32  1829               	btfsc	___xxtofl@exp,0
  3232  0B33  2B35               	goto	u3641
  3233  0B34  2B36               	goto	u3640
  3234  0B35                     u3641:
  3235  0B35  2B3E               	goto	l821
  3236  0B36                     u3640:
  3237  0B36                     l2898:
  3238  0B36  30FF               	movlw	255
  3239  0B37  05AA               	andwf	___xxtofl@arg,f
  3240  0B38  30FF               	movlw	255
  3241  0B39  05AB               	andwf	___xxtofl@arg+1,f
  3242  0B3A  307F               	movlw	127
  3243  0B3B  05AC               	andwf	___xxtofl@arg+2,f
  3244  0B3C  30FF               	movlw	255
  3245  0B3D  05AD               	andwf	___xxtofl@arg+3,f
  3246  0B3E                     l821:
  3247  0B3E  1003               	clrc
  3248  0B3F  0CA9               	rrf	___xxtofl@exp,f
  3249  0B40                     l2900:
  3250  0B40  0829               	movf	___xxtofl@exp,w
  3251  0B41  00A4               	movwf	??___xxtofl
  3252  0B42  01A5               	clrf	??___xxtofl+1
  3253  0B43  01A6               	clrf	??___xxtofl+2
  3254  0B44  01A7               	clrf	??___xxtofl+3
  3255  0B45  3018               	movlw	24
  3256  0B46                     u3655:
  3257  0B46  1003               	clrc
  3258  0B47  0DA4               	rlf	??___xxtofl,f
  3259  0B48  0DA5               	rlf	??___xxtofl+1,f
  3260  0B49  0DA6               	rlf	??___xxtofl+2,f
  3261  0B4A  0DA7               	rlf	??___xxtofl+3,f
  3262  0B4B                     u3650:
  3263  0B4B  3EFF               	addlw	-1
  3264  0B4C  1D03               	skipz
  3265  0B4D  2B46               	goto	u3655
  3266  0B4E  0824               	movf	??___xxtofl,w
  3267  0B4F  04AA               	iorwf	___xxtofl@arg,f
  3268  0B50  0825               	movf	??___xxtofl+1,w
  3269  0B51  04AB               	iorwf	___xxtofl@arg+1,f
  3270  0B52  0826               	movf	??___xxtofl+2,w
  3271  0B53  04AC               	iorwf	___xxtofl@arg+2,f
  3272  0B54  0827               	movf	??___xxtofl+3,w
  3273  0B55  04AD               	iorwf	___xxtofl@arg+3,f
  3274  0B56                     l2902:
  3275  0B56  0828               	movf	___xxtofl@sign,w
  3276  0B57  1903               	btfsc	3,2
  3277  0B58  2B5A               	goto	u3661
  3278  0B59  2B5B               	goto	u3660
  3279  0B5A                     u3661:
  3280  0B5A  2B60               	goto	l2908
  3281  0B5B                     u3660:
  3282  0B5B                     l2904:
  3283  0B5B  1FA3               	btfss	___xxtofl@val+3,7
  3284  0B5C  2B5E               	goto	u3671
  3285  0B5D  2B5F               	goto	u3670
  3286  0B5E                     u3671:
  3287  0B5E  2B60               	goto	l2908
  3288  0B5F                     u3670:
  3289  0B5F                     l2906:
  3290  0B5F  17AD               	bsf	___xxtofl@arg+3,7
  3291  0B60                     l2908:
  3292  0B60  082D               	movf	___xxtofl@arg+3,w
  3293  0B61  00A3               	movwf	?___xxtofl+3
  3294  0B62  082C               	movf	___xxtofl@arg+2,w
  3295  0B63  00A2               	movwf	?___xxtofl+2
  3296  0B64  082B               	movf	___xxtofl@arg+1,w
  3297  0B65  00A1               	movwf	?___xxtofl+1
  3298  0B66  082A               	movf	___xxtofl@arg,w
  3299  0B67  00A0               	movwf	?___xxtofl
  3300  0B68                     l809:
  3301  0B68  0008               	return
  3302  0B69                     __end_of___xxtofl:
  3303                           
  3304                           	psect	text14
  3305  075D                     __ptext14:	
  3306 ;; *************** function ___fltol *****************
  3307 ;; Defined at:
  3308 ;;		line 43 in file "C:\Program Files\Microchip\xc8\v2.32\pic\sources\c90\common\fltol.c"
  3309 ;; Parameters:    Size  Location     Type
  3310 ;;  f1              4   73[BANK0 ] unsigned char 
  3311 ;; Auto vars:     Size  Location     Type
  3312 ;;  exp1            1   78[BANK0 ] unsigned char 
  3313 ;;  sign1           1   77[BANK0 ] unsigned char 
  3314 ;; Return value:  Size  Location     Type
  3315 ;;                  4   73[BANK0 ] long 
  3316 ;; Registers used:
  3317 ;;		wreg, status,2, status,0
  3318 ;; Tracked objects:
  3319 ;;		On entry : 0/0
  3320 ;;		On exit  : 0/0
  3321 ;;		Unchanged: 0/0
  3322 ;; Data sizes:     COMMON   BANK0   BANK1   BANK3   BANK2
  3323 ;;      Params:         0       4       0       0       0
  3324 ;;      Locals:         0       2       0       0       0
  3325 ;;      Temps:          0       0       5       0       0
  3326 ;;      Totals:         0       6       5       0       0
  3327 ;;Total ram usage:       11 bytes
  3328 ;; Hardware stack levels used: 1
  3329 ;; Hardware stack levels required when called: 4
  3330 ;; This function calls:
  3331 ;;		Nothing
  3332 ;; This function is called by:
  3333 ;;		_MPU6050_Read
  3334 ;; This function uses a non-reentrant model
  3335 ;;
  3336                           
  3337                           
  3338                           ;psect for function ___fltol
  3339  075D                     ___fltol:
  3340  075D                     l2356:	
  3341                           ;incstack = 0
  3342                           ; Regs used in ___fltol: [wreg+status,2+status,0]
  3343                           
  3344  075D  1003               	clrc
  3345  075E  1283               	bcf	3,5	;RP0=0, select bank0
  3346  075F  1303               	bcf	3,6	;RP1=0, select bank0
  3347  0760  0D6B               	rlf	___fltol@f1+2,w
  3348  0761  0D6C               	rlf	___fltol@f1+3,w
  3349  0762  1683               	bsf	3,5	;RP0=1, select bank1
  3350  0763  1303               	bcf	3,6	;RP1=0, select bank1
  3351  0764  00AD               	movwf	??___fltol^(0+128)
  3352  0765  082D               	movf	??___fltol^(0+128),w
  3353  0766  1283               	bcf	3,5	;RP0=0, select bank0
  3354  0767  1303               	bcf	3,6	;RP1=0, select bank0
  3355  0768  00EE               	movwf	___fltol@exp1
  3356  0769  086E               	movf	___fltol@exp1,w
  3357  076A  1D03               	btfss	3,2
  3358  076B  2F6D               	goto	u2321
  3359  076C  2F6E               	goto	u2320
  3360  076D                     u2321:
  3361  076D  2F77               	goto	l2362
  3362  076E                     u2320:
  3363  076E                     l2358:
  3364  076E  3000               	movlw	0
  3365  076F  00EC               	movwf	?___fltol+3
  3366  0770  3000               	movlw	0
  3367  0771  00EB               	movwf	?___fltol+2
  3368  0772  3000               	movlw	0
  3369  0773  00EA               	movwf	?___fltol+1
  3370  0774  3000               	movlw	0
  3371  0775  00E9               	movwf	?___fltol
  3372  0776  2FF8               	goto	l560
  3373  0777                     l2362:
  3374  0777  0869               	movf	___fltol@f1,w
  3375  0778  1683               	bsf	3,5	;RP0=1, select bank1
  3376  0779  1303               	bcf	3,6	;RP1=0, select bank1
  3377  077A  00AD               	movwf	??___fltol^(0+128)
  3378  077B  1283               	bcf	3,5	;RP0=0, select bank0
  3379  077C  1303               	bcf	3,6	;RP1=0, select bank0
  3380  077D  086A               	movf	___fltol@f1+1,w
  3381  077E  1683               	bsf	3,5	;RP0=1, select bank1
  3382  077F  1303               	bcf	3,6	;RP1=0, select bank1
  3383  0780  00AE               	movwf	(??___fltol^(0+128)+1)
  3384  0781  1283               	bcf	3,5	;RP0=0, select bank0
  3385  0782  1303               	bcf	3,6	;RP1=0, select bank0
  3386  0783  086B               	movf	___fltol@f1+2,w
  3387  0784  1683               	bsf	3,5	;RP0=1, select bank1
  3388  0785  1303               	bcf	3,6	;RP1=0, select bank1
  3389  0786  00AF               	movwf	(??___fltol^(0+128)+2)
  3390  0787  1283               	bcf	3,5	;RP0=0, select bank0
  3391  0788  1303               	bcf	3,6	;RP1=0, select bank0
  3392  0789  086C               	movf	___fltol@f1+3,w
  3393  078A  1683               	bsf	3,5	;RP0=1, select bank1
  3394  078B  1303               	bcf	3,6	;RP1=0, select bank1
  3395  078C  00B0               	movwf	(??___fltol^(0+128)+3)
  3396  078D  301F               	movlw	31
  3397  078E                     u2335:
  3398  078E  1003               	clrc
  3399  078F  0CB0               	rrf	(??___fltol^(0+128)+3),f
  3400  0790  0CAF               	rrf	(??___fltol^(0+128)+2),f
  3401  0791  0CAE               	rrf	(??___fltol^(0+128)+1),f
  3402  0792  0CAD               	rrf	??___fltol^(0+128),f
  3403  0793                     u2330:
  3404  0793  3EFF               	addlw	-1
  3405  0794  1D03               	skipz
  3406  0795  2F8E               	goto	u2335
  3407  0796  082D               	movf	??___fltol^(0+128),w
  3408  0797  00B1               	movwf	(??___fltol+4)^(0+128)
  3409  0798  0831               	movf	(??___fltol+4)^(0+128),w
  3410  0799  1283               	bcf	3,5	;RP0=0, select bank0
  3411  079A  1303               	bcf	3,6	;RP1=0, select bank0
  3412  079B  00ED               	movwf	___fltol@sign1
  3413  079C                     l2364:
  3414  079C  17EB               	bsf	___fltol@f1+2,7
  3415  079D                     l2366:
  3416  079D  30FF               	movlw	255
  3417  079E  05E9               	andwf	___fltol@f1,f
  3418  079F  30FF               	movlw	255
  3419  07A0  05EA               	andwf	___fltol@f1+1,f
  3420  07A1  30FF               	movlw	255
  3421  07A2  05EB               	andwf	___fltol@f1+2,f
  3422  07A3  3000               	movlw	0
  3423  07A4  05EC               	andwf	___fltol@f1+3,f
  3424  07A5                     l2368:
  3425  07A5  3096               	movlw	150
  3426  07A6  02EE               	subwf	___fltol@exp1,f
  3427  07A7                     l2370:
  3428  07A7  1FEE               	btfss	___fltol@exp1,7
  3429  07A8  2FAA               	goto	u2341
  3430  07A9  2FAB               	goto	u2340
  3431  07AA                     u2341:
  3432  07AA  2FC9               	goto	l2380
  3433  07AB                     u2340:
  3434  07AB                     l2372:
  3435  07AB  086E               	movf	___fltol@exp1,w
  3436  07AC  3A80               	xorlw	128
  3437  07AD  3E97               	addlw	151
  3438  07AE  1803               	skipnc
  3439  07AF  2FB1               	goto	u2351
  3440  07B0  2FB2               	goto	u2350
  3441  07B1                     u2351:
  3442  07B1  2FB3               	goto	l2378
  3443  07B2                     u2350:
  3444  07B2  2F6E               	goto	l2358
  3445  07B3                     l2378:
  3446  07B3  3001               	movlw	1
  3447  07B4                     u2365:
  3448  07B4  1003               	clrc
  3449  07B5  0CEC               	rrf	___fltol@f1+3,f
  3450  07B6  0CEB               	rrf	___fltol@f1+2,f
  3451  07B7  0CEA               	rrf	___fltol@f1+1,f
  3452  07B8  0CE9               	rrf	___fltol@f1,f
  3453  07B9  3EFF               	addlw	-1
  3454  07BA  1D03               	skipz
  3455  07BB  2FB4               	goto	u2365
  3456  07BC  3001               	movlw	1
  3457  07BD  1683               	bsf	3,5	;RP0=1, select bank1
  3458  07BE  1303               	bcf	3,6	;RP1=0, select bank1
  3459  07BF  00AD               	movwf	??___fltol^(0+128)
  3460  07C0  082D               	movf	??___fltol^(0+128),w
  3461  07C1  1283               	bcf	3,5	;RP0=0, select bank0
  3462  07C2  1303               	bcf	3,6	;RP1=0, select bank0
  3463  07C3  07EE               	addwf	___fltol@exp1,f
  3464  07C4  1D03               	btfss	3,2
  3465  07C5  2FC7               	goto	u2371
  3466  07C6  2FC8               	goto	u2370
  3467  07C7                     u2371:
  3468  07C7  2FB3               	goto	l2378
  3469  07C8                     u2370:
  3470  07C8  2FE8               	goto	l2388
  3471  07C9                     l2380:
  3472  07C9  3020               	movlw	32
  3473  07CA  026E               	subwf	___fltol@exp1,w
  3474  07CB  1C03               	skipc
  3475  07CC  2FCE               	goto	u2381
  3476  07CD  2FCF               	goto	u2380
  3477  07CE                     u2381:
  3478  07CE  2FE3               	goto	l567
  3479  07CF                     u2380:
  3480  07CF  2F6E               	goto	l2358
  3481  07D0                     l2386:
  3482  07D0  3001               	movlw	1
  3483  07D1  1683               	bsf	3,5	;RP0=1, select bank1
  3484  07D2  1303               	bcf	3,6	;RP1=0, select bank1
  3485  07D3  00AD               	movwf	??___fltol^(0+128)
  3486  07D4                     u2395:
  3487  07D4  1003               	clrc
  3488  07D5  1283               	bcf	3,5	;RP0=0, select bank0
  3489  07D6  1303               	bcf	3,6	;RP1=0, select bank0
  3490  07D7  0DE9               	rlf	___fltol@f1,f
  3491  07D8  0DEA               	rlf	___fltol@f1+1,f
  3492  07D9  0DEB               	rlf	___fltol@f1+2,f
  3493  07DA  0DEC               	rlf	___fltol@f1+3,f
  3494  07DB  1683               	bsf	3,5	;RP0=1, select bank1
  3495  07DC  1303               	bcf	3,6	;RP1=0, select bank1
  3496  07DD  0BAD               	decfsz	??___fltol^(0+128),f
  3497  07DE  2FD4               	goto	u2395
  3498  07DF  3001               	movlw	1
  3499  07E0  1283               	bcf	3,5	;RP0=0, select bank0
  3500  07E1  1303               	bcf	3,6	;RP1=0, select bank0
  3501  07E2  02EE               	subwf	___fltol@exp1,f
  3502  07E3                     l567:
  3503  07E3  086E               	movf	___fltol@exp1,w
  3504  07E4  1D03               	btfss	3,2
  3505  07E5  2FE7               	goto	u2401
  3506  07E6  2FE8               	goto	u2400
  3507  07E7                     u2401:
  3508  07E7  2FD0               	goto	l2386
  3509  07E8                     u2400:
  3510  07E8                     l2388:
  3511  07E8  086D               	movf	___fltol@sign1,w
  3512  07E9  1903               	btfsc	3,2
  3513  07EA  2FEC               	goto	u2411
  3514  07EB  2FED               	goto	u2410
  3515  07EC                     u2411:
  3516  07EC  2FF8               	goto	l570
  3517  07ED                     u2410:
  3518  07ED                     l2390:
  3519  07ED  09E9               	comf	___fltol@f1,f
  3520  07EE  09EA               	comf	___fltol@f1+1,f
  3521  07EF  09EB               	comf	___fltol@f1+2,f
  3522  07F0  09EC               	comf	___fltol@f1+3,f
  3523  07F1  0AE9               	incf	___fltol@f1,f
  3524  07F2  1903               	skipnz
  3525  07F3  0AEA               	incf	___fltol@f1+1,f
  3526  07F4  1903               	skipnz
  3527  07F5  0AEB               	incf	___fltol@f1+2,f
  3528  07F6  1903               	skipnz
  3529  07F7  0AEC               	incf	___fltol@f1+3,f
  3530  07F8                     l570:
  3531  07F8                     l560:
  3532  07F8  0008               	return
  3533  07F9                     __end_of___fltol:
  3534                           
  3535                           	psect	text15
  3536  0021                     __ptext15:	
  3537 ;; *************** function ___flmul *****************
  3538 ;; Defined at:
  3539 ;;		line 8 in file "C:\Program Files\Microchip\xc8\v2.32\pic\sources\c90\common\sprcmul.c"
  3540 ;; Parameters:    Size  Location     Type
  3541 ;;  b               4   60[BANK0 ] long 
  3542 ;;  a               4   64[BANK0 ] long 
  3543 ;; Auto vars:     Size  Location     Type
  3544 ;;  prod            4    7[BANK1 ] struct .
  3545 ;;  grs             4    1[BANK1 ] unsigned long 
  3546 ;;  temp            2   11[BANK1 ] struct .
  3547 ;;  bexp            1    6[BANK1 ] unsigned char 
  3548 ;;  aexp            1    5[BANK1 ] unsigned char 
  3549 ;;  sign            1    0[BANK1 ] unsigned char 
  3550 ;; Return value:  Size  Location     Type
  3551 ;;                  4   60[BANK0 ] unsigned char 
  3552 ;; Registers used:
  3553 ;;		wreg, status,2, status,0, btemp+1, pclath, cstack
  3554 ;; Tracked objects:
  3555 ;;		On entry : 0/0
  3556 ;;		On exit  : 0/0
  3557 ;;		Unchanged: 0/0
  3558 ;; Data sizes:     COMMON   BANK0   BANK1   BANK3   BANK2
  3559 ;;      Params:         0       8       0       0       0
  3560 ;;      Locals:         0       0      13       0       0
  3561 ;;      Temps:          0       5       0       0       0
  3562 ;;      Totals:         0      13      13       0       0
  3563 ;;Total ram usage:       26 bytes
  3564 ;; Hardware stack levels used: 1
  3565 ;; Hardware stack levels required when called: 5
  3566 ;; This function calls:
  3567 ;;		__Umul8_16
  3568 ;; This function is called by:
  3569 ;;		_MPU6050_Read
  3570 ;; This function uses a non-reentrant model
  3571 ;;
  3572                           
  3573                           
  3574                           ;psect for function ___flmul
  3575  0021                     ___flmul:
  3576  0021                     l2728:	
  3577                           ;incstack = 0
  3578                           ; Regs used in ___flmul: [wreg+status,2+status,0+btemp+1+pclath+cstack]
  3579                           
  3580  0021  1283               	bcf	3,5	;RP0=0, select bank0
  3581  0022  1303               	bcf	3,6	;RP1=0, select bank0
  3582  0023  085F               	movf	___flmul@b+3,w
  3583  0024  3980               	andlw	128
  3584  0025  00E4               	movwf	??___flmul
  3585  0026  0864               	movf	??___flmul,w
  3586  0027  1683               	bsf	3,5	;RP0=1, select bank1
  3587  0028  1303               	bcf	3,6	;RP1=0, select bank1
  3588  0029  00A0               	movwf	___flmul@sign^(0+128)
  3589  002A                     l2730:
  3590  002A  1283               	bcf	3,5	;RP0=0, select bank0
  3591  002B  1303               	bcf	3,6	;RP1=0, select bank0
  3592  002C  085F               	movf	___flmul@b+3,w
  3593  002D  00E4               	movwf	??___flmul
  3594  002E  0764               	addwf	??___flmul,w
  3595  002F  00E5               	movwf	??___flmul+1
  3596  0030  0865               	movf	??___flmul+1,w
  3597  0031  1683               	bsf	3,5	;RP0=1, select bank1
  3598  0032  1303               	bcf	3,6	;RP1=0, select bank1
  3599  0033  00A6               	movwf	___flmul@bexp^(0+128)
  3600  0034                     l2732:
  3601  0034  1283               	bcf	3,5	;RP0=0, select bank0
  3602  0035  1303               	bcf	3,6	;RP1=0, select bank0
  3603  0036  1FDE               	btfss	___flmul@b+2,7
  3604  0037  2839               	goto	u3171
  3605  0038  283A               	goto	u3170
  3606  0039                     u3171:
  3607  0039  283D               	goto	l2736
  3608  003A                     u3170:
  3609  003A                     l2734:
  3610  003A  1683               	bsf	3,5	;RP0=1, select bank1
  3611  003B  1303               	bcf	3,6	;RP1=0, select bank1
  3612  003C  1426               	bsf	___flmul@bexp^(0+128),0
  3613  003D                     l2736:
  3614  003D  1683               	bsf	3,5	;RP0=1, select bank1
  3615  003E  1303               	bcf	3,6	;RP1=0, select bank1
  3616  003F  0826               	movf	___flmul@bexp^(0+128),w
  3617  0040  1903               	btfsc	3,2
  3618  0041  2843               	goto	u3181
  3619  0042  2844               	goto	u3180
  3620  0043                     u3181:
  3621  0043  2856               	goto	l2744
  3622  0044                     u3180:
  3623  0044                     l2738:
  3624  0044  0A26               	incf	___flmul@bexp^(0+128),w
  3625  0045  1D03               	btfss	3,2
  3626  0046  2848               	goto	u3191
  3627  0047  2849               	goto	u3190
  3628  0048                     u3191:
  3629  0048  2853               	goto	l2742
  3630  0049                     u3190:
  3631  0049                     l2740:
  3632  0049  3000               	movlw	0
  3633  004A  1283               	bcf	3,5	;RP0=0, select bank0
  3634  004B  1303               	bcf	3,6	;RP1=0, select bank0
  3635  004C  00DF               	movwf	___flmul@b+3
  3636  004D  3000               	movlw	0
  3637  004E  00DE               	movwf	___flmul@b+2
  3638  004F  3000               	movlw	0
  3639  0050  00DD               	movwf	___flmul@b+1
  3640  0051  3000               	movlw	0
  3641  0052  00DC               	movwf	___flmul@b
  3642  0053                     l2742:
  3643  0053  1283               	bcf	3,5	;RP0=0, select bank0
  3644  0054  17DE               	bsf	___flmul@b+2,7
  3645  0055  2860               	goto	l2746
  3646  0056                     l2744:
  3647  0056  3000               	movlw	0
  3648  0057  1283               	bcf	3,5	;RP0=0, select bank0
  3649  0058  1303               	bcf	3,6	;RP1=0, select bank0
  3650  0059  00DF               	movwf	___flmul@b+3
  3651  005A  3000               	movlw	0
  3652  005B  00DE               	movwf	___flmul@b+2
  3653  005C  3000               	movlw	0
  3654  005D  00DD               	movwf	___flmul@b+1
  3655  005E  3000               	movlw	0
  3656  005F  00DC               	movwf	___flmul@b
  3657  0060                     l2746:
  3658  0060  0863               	movf	___flmul@a+3,w
  3659  0061  3980               	andlw	128
  3660  0062  00E4               	movwf	??___flmul
  3661  0063  0864               	movf	??___flmul,w
  3662  0064  1683               	bsf	3,5	;RP0=1, select bank1
  3663  0065  1303               	bcf	3,6	;RP1=0, select bank1
  3664  0066  06A0               	xorwf	___flmul@sign^(0+128),f
  3665  0067                     l2748:
  3666  0067  1283               	bcf	3,5	;RP0=0, select bank0
  3667  0068  1303               	bcf	3,6	;RP1=0, select bank0
  3668  0069  0863               	movf	___flmul@a+3,w
  3669  006A  00E4               	movwf	??___flmul
  3670  006B  0764               	addwf	??___flmul,w
  3671  006C  00E5               	movwf	??___flmul+1
  3672  006D  0865               	movf	??___flmul+1,w
  3673  006E  1683               	bsf	3,5	;RP0=1, select bank1
  3674  006F  1303               	bcf	3,6	;RP1=0, select bank1
  3675  0070  00A5               	movwf	___flmul@aexp^(0+128)
  3676  0071                     l2750:
  3677  0071  1283               	bcf	3,5	;RP0=0, select bank0
  3678  0072  1303               	bcf	3,6	;RP1=0, select bank0
  3679  0073  1FE2               	btfss	___flmul@a+2,7
  3680  0074  2876               	goto	u3201
  3681  0075  2877               	goto	u3200
  3682  0076                     u3201:
  3683  0076  287A               	goto	l2754
  3684  0077                     u3200:
  3685  0077                     l2752:
  3686  0077  1683               	bsf	3,5	;RP0=1, select bank1
  3687  0078  1303               	bcf	3,6	;RP1=0, select bank1
  3688  0079  1425               	bsf	___flmul@aexp^(0+128),0
  3689  007A                     l2754:
  3690  007A  1683               	bsf	3,5	;RP0=1, select bank1
  3691  007B  1303               	bcf	3,6	;RP1=0, select bank1
  3692  007C  0825               	movf	___flmul@aexp^(0+128),w
  3693  007D  1903               	btfsc	3,2
  3694  007E  2880               	goto	u3211
  3695  007F  2881               	goto	u3210
  3696  0080                     u3211:
  3697  0080  2893               	goto	l2762
  3698  0081                     u3210:
  3699  0081                     l2756:
  3700  0081  0A25               	incf	___flmul@aexp^(0+128),w
  3701  0082  1D03               	btfss	3,2
  3702  0083  2885               	goto	u3221
  3703  0084  2886               	goto	u3220
  3704  0085                     u3221:
  3705  0085  2890               	goto	l2760
  3706  0086                     u3220:
  3707  0086                     l2758:
  3708  0086  3000               	movlw	0
  3709  0087  1283               	bcf	3,5	;RP0=0, select bank0
  3710  0088  1303               	bcf	3,6	;RP1=0, select bank0
  3711  0089  00E3               	movwf	___flmul@a+3
  3712  008A  3000               	movlw	0
  3713  008B  00E2               	movwf	___flmul@a+2
  3714  008C  3000               	movlw	0
  3715  008D  00E1               	movwf	___flmul@a+1
  3716  008E  3000               	movlw	0
  3717  008F  00E0               	movwf	___flmul@a
  3718  0090                     l2760:
  3719  0090  1283               	bcf	3,5	;RP0=0, select bank0
  3720  0091  17E2               	bsf	___flmul@a+2,7
  3721  0092  289D               	goto	l2764
  3722  0093                     l2762:
  3723  0093  3000               	movlw	0
  3724  0094  1283               	bcf	3,5	;RP0=0, select bank0
  3725  0095  1303               	bcf	3,6	;RP1=0, select bank0
  3726  0096  00E3               	movwf	___flmul@a+3
  3727  0097  3000               	movlw	0
  3728  0098  00E2               	movwf	___flmul@a+2
  3729  0099  3000               	movlw	0
  3730  009A  00E1               	movwf	___flmul@a+1
  3731  009B  3000               	movlw	0
  3732  009C  00E0               	movwf	___flmul@a
  3733  009D                     l2764:
  3734  009D  1683               	bsf	3,5	;RP0=1, select bank1
  3735  009E  1303               	bcf	3,6	;RP1=0, select bank1
  3736  009F  0825               	movf	___flmul@aexp^(0+128),w
  3737  00A0  1903               	btfsc	3,2
  3738  00A1  28A3               	goto	u3231
  3739  00A2  28A4               	goto	u3230
  3740  00A3                     u3231:
  3741  00A3  28A9               	goto	l2768
  3742  00A4                     u3230:
  3743  00A4                     l2766:
  3744  00A4  0826               	movf	___flmul@bexp^(0+128),w
  3745  00A5  1D03               	btfss	3,2
  3746  00A6  28A8               	goto	u3241
  3747  00A7  28A9               	goto	u3240
  3748  00A8                     u3241:
  3749  00A8  28B4               	goto	l2772
  3750  00A9                     u3240:
  3751  00A9                     l2768:
  3752  00A9  3000               	movlw	0
  3753  00AA  1283               	bcf	3,5	;RP0=0, select bank0
  3754  00AB  1303               	bcf	3,6	;RP1=0, select bank0
  3755  00AC  00DF               	movwf	?___flmul+3
  3756  00AD  3000               	movlw	0
  3757  00AE  00DE               	movwf	?___flmul+2
  3758  00AF  3000               	movlw	0
  3759  00B0  00DD               	movwf	?___flmul+1
  3760  00B1  3000               	movlw	0
  3761  00B2  00DC               	movwf	?___flmul
  3762  00B3  2D7F               	goto	l763
  3763  00B4                     l2772:
  3764  00B4  1283               	bcf	3,5	;RP0=0, select bank0
  3765  00B5  1303               	bcf	3,6	;RP1=0, select bank0
  3766  00B6  085C               	movf	___flmul@b,w
  3767  00B7  00E4               	movwf	??___flmul
  3768  00B8  0864               	movf	??___flmul,w
  3769  00B9  00A0               	movwf	__Umul8_16@multiplicand
  3770  00BA  0862               	movf	___flmul@a+2,w
  3771  00BB  160A  118A  271B  120A  118A  	fcall	__Umul8_16
  3772  00C0  1283               	bcf	3,5	;RP0=0, select bank0
  3773  00C1  1303               	bcf	3,6	;RP1=0, select bank0
  3774  00C2  0821               	movf	?__Umul8_16+1,w
  3775  00C3  1683               	bsf	3,5	;RP0=1, select bank1
  3776  00C4  1303               	bcf	3,6	;RP1=0, select bank1
  3777  00C5  00AC               	movwf	(___flmul@temp+1)^(0+128)
  3778  00C6  1283               	bcf	3,5	;RP0=0, select bank0
  3779  00C7  1303               	bcf	3,6	;RP1=0, select bank0
  3780  00C8  0820               	movf	?__Umul8_16,w
  3781  00C9  1683               	bsf	3,5	;RP0=1, select bank1
  3782  00CA  1303               	bcf	3,6	;RP1=0, select bank1
  3783  00CB  00AB               	movwf	___flmul@temp^(0+128)
  3784  00CC                     l2774:
  3785  00CC  082B               	movf	___flmul@temp^(0+128),w
  3786  00CD  1283               	bcf	3,5	;RP0=0, select bank0
  3787  00CE  1303               	bcf	3,6	;RP1=0, select bank0
  3788  00CF  00E4               	movwf	??___flmul
  3789  00D0  01E5               	clrf	??___flmul+1
  3790  00D1  01E6               	clrf	??___flmul+2
  3791  00D2  01E7               	clrf	??___flmul+3
  3792  00D3  0867               	movf	??___flmul+3,w
  3793  00D4  1683               	bsf	3,5	;RP0=1, select bank1
  3794  00D5  1303               	bcf	3,6	;RP1=0, select bank1
  3795  00D6  00A4               	movwf	(___flmul@grs+3)^(0+128)
  3796  00D7  1283               	bcf	3,5	;RP0=0, select bank0
  3797  00D8  1303               	bcf	3,6	;RP1=0, select bank0
  3798  00D9  0866               	movf	??___flmul+2,w
  3799  00DA  1683               	bsf	3,5	;RP0=1, select bank1
  3800  00DB  1303               	bcf	3,6	;RP1=0, select bank1
  3801  00DC  00A3               	movwf	(___flmul@grs+2)^(0+128)
  3802  00DD  1283               	bcf	3,5	;RP0=0, select bank0
  3803  00DE  1303               	bcf	3,6	;RP1=0, select bank0
  3804  00DF  0865               	movf	??___flmul+1,w
  3805  00E0  1683               	bsf	3,5	;RP0=1, select bank1
  3806  00E1  1303               	bcf	3,6	;RP1=0, select bank1
  3807  00E2  00A2               	movwf	(___flmul@grs+1)^(0+128)
  3808  00E3  1283               	bcf	3,5	;RP0=0, select bank0
  3809  00E4  1303               	bcf	3,6	;RP1=0, select bank0
  3810  00E5  0864               	movf	??___flmul,w
  3811  00E6  1683               	bsf	3,5	;RP0=1, select bank1
  3812  00E7  1303               	bcf	3,6	;RP1=0, select bank1
  3813  00E8  00A1               	movwf	___flmul@grs^(0+128)
  3814  00E9                     l2776:
  3815  00E9  082C               	movf	(___flmul@temp^(0+128)+1),w
  3816  00EA  1283               	bcf	3,5	;RP0=0, select bank0
  3817  00EB  1303               	bcf	3,6	;RP1=0, select bank0
  3818  00EC  00E4               	movwf	??___flmul
  3819  00ED  01E5               	clrf	??___flmul+1
  3820  00EE  01E6               	clrf	??___flmul+2
  3821  00EF  01E7               	clrf	??___flmul+3
  3822  00F0  0867               	movf	??___flmul+3,w
  3823  00F1  1683               	bsf	3,5	;RP0=1, select bank1
  3824  00F2  1303               	bcf	3,6	;RP1=0, select bank1
  3825  00F3  00AA               	movwf	(___flmul@prod+3)^(0+128)
  3826  00F4  1283               	bcf	3,5	;RP0=0, select bank0
  3827  00F5  1303               	bcf	3,6	;RP1=0, select bank0
  3828  00F6  0866               	movf	??___flmul+2,w
  3829  00F7  1683               	bsf	3,5	;RP0=1, select bank1
  3830  00F8  1303               	bcf	3,6	;RP1=0, select bank1
  3831  00F9  00A9               	movwf	(___flmul@prod+2)^(0+128)
  3832  00FA  1283               	bcf	3,5	;RP0=0, select bank0
  3833  00FB  1303               	bcf	3,6	;RP1=0, select bank0
  3834  00FC  0865               	movf	??___flmul+1,w
  3835  00FD  1683               	bsf	3,5	;RP0=1, select bank1
  3836  00FE  1303               	bcf	3,6	;RP1=0, select bank1
  3837  00FF  00A8               	movwf	(___flmul@prod+1)^(0+128)
  3838  0100  1283               	bcf	3,5	;RP0=0, select bank0
  3839  0101  1303               	bcf	3,6	;RP1=0, select bank0
  3840  0102  0864               	movf	??___flmul,w
  3841  0103  1683               	bsf	3,5	;RP0=1, select bank1
  3842  0104  1303               	bcf	3,6	;RP1=0, select bank1
  3843  0105  00A7               	movwf	___flmul@prod^(0+128)
  3844  0106  1283               	bcf	3,5	;RP0=0, select bank0
  3845  0107  1303               	bcf	3,6	;RP1=0, select bank0
  3846  0108  085D               	movf	___flmul@b+1,w
  3847  0109  00E4               	movwf	??___flmul
  3848  010A  0864               	movf	??___flmul,w
  3849  010B  00A0               	movwf	__Umul8_16@multiplicand
  3850  010C  0861               	movf	___flmul@a+1,w
  3851  010D  160A  118A  271B  120A  118A  	fcall	__Umul8_16
  3852  0112  1283               	bcf	3,5	;RP0=0, select bank0
  3853  0113  1303               	bcf	3,6	;RP1=0, select bank0
  3854  0114  0821               	movf	?__Umul8_16+1,w
  3855  0115  1683               	bsf	3,5	;RP0=1, select bank1
  3856  0116  1303               	bcf	3,6	;RP1=0, select bank1
  3857  0117  00AC               	movwf	(___flmul@temp+1)^(0+128)
  3858  0118  1283               	bcf	3,5	;RP0=0, select bank0
  3859  0119  1303               	bcf	3,6	;RP1=0, select bank0
  3860  011A  0820               	movf	?__Umul8_16,w
  3861  011B  1683               	bsf	3,5	;RP0=1, select bank1
  3862  011C  1303               	bcf	3,6	;RP1=0, select bank1
  3863  011D  00AB               	movwf	___flmul@temp^(0+128)
  3864  011E                     l2778:
  3865  011E  082B               	movf	___flmul@temp^(0+128),w
  3866  011F  1283               	bcf	3,5	;RP0=0, select bank0
  3867  0120  1303               	bcf	3,6	;RP1=0, select bank0
  3868  0121  00E4               	movwf	??___flmul
  3869  0122  01E5               	clrf	??___flmul+1
  3870  0123  01E6               	clrf	??___flmul+2
  3871  0124  01E7               	clrf	??___flmul+3
  3872  0125  0864               	movf	??___flmul,w
  3873  0126  1683               	bsf	3,5	;RP0=1, select bank1
  3874  0127  1303               	bcf	3,6	;RP1=0, select bank1
  3875  0128  07A1               	addwf	___flmul@grs^(0+128),f
  3876  0129  1283               	bcf	3,5	;RP0=0, select bank0
  3877  012A  1303               	bcf	3,6	;RP1=0, select bank0
  3878  012B  0865               	movf	??___flmul+1,w
  3879  012C  1103               	clrz
  3880  012D  1803               	skipnc
  3881  012E  3E01               	addlw	1
  3882  012F  1903               	skipnz
  3883  0130  2934               	goto	u3251
  3884  0131  1683               	bsf	3,5	;RP0=1, select bank1
  3885  0132  1303               	bcf	3,6	;RP1=0, select bank1
  3886  0133  07A2               	addwf	(___flmul@grs+1)^(0+128),f
  3887  0134                     u3251:
  3888  0134  1283               	bcf	3,5	;RP0=0, select bank0
  3889  0135  1303               	bcf	3,6	;RP1=0, select bank0
  3890  0136  0866               	movf	??___flmul+2,w
  3891  0137  1103               	clrz
  3892  0138  1803               	skipnc
  3893  0139  3E01               	addlw	1
  3894  013A  1903               	skipnz
  3895  013B  293F               	goto	u3252
  3896  013C  1683               	bsf	3,5	;RP0=1, select bank1
  3897  013D  1303               	bcf	3,6	;RP1=0, select bank1
  3898  013E  07A3               	addwf	(___flmul@grs+2)^(0+128),f
  3899  013F                     u3252:
  3900  013F  1283               	bcf	3,5	;RP0=0, select bank0
  3901  0140  1303               	bcf	3,6	;RP1=0, select bank0
  3902  0141  0867               	movf	??___flmul+3,w
  3903  0142  1103               	clrz
  3904  0143  1803               	skipnc
  3905  0144  3E01               	addlw	1
  3906  0145  1903               	skipnz
  3907  0146  294A               	goto	u3253
  3908  0147  1683               	bsf	3,5	;RP0=1, select bank1
  3909  0148  1303               	bcf	3,6	;RP1=0, select bank1
  3910  0149  07A4               	addwf	(___flmul@grs+3)^(0+128),f
  3911  014A                     u3253:
  3912  014A  1283               	bcf	3,5	;RP0=0, select bank0
  3913  014B  1303               	bcf	3,6	;RP1=0, select bank0
  3914  014C  1683               	bsf	3,5	;RP0=1, select bank1
  3915  014D  1303               	bcf	3,6	;RP1=0, select bank1
  3916  014E                     l2780:
  3917  014E  082C               	movf	(___flmul@temp^(0+128)+1),w
  3918  014F  1283               	bcf	3,5	;RP0=0, select bank0
  3919  0150  1303               	bcf	3,6	;RP1=0, select bank0
  3920  0151  00E4               	movwf	??___flmul
  3921  0152  01E5               	clrf	??___flmul+1
  3922  0153  01E6               	clrf	??___flmul+2
  3923  0154  01E7               	clrf	??___flmul+3
  3924  0155  0864               	movf	??___flmul,w
  3925  0156  1683               	bsf	3,5	;RP0=1, select bank1
  3926  0157  1303               	bcf	3,6	;RP1=0, select bank1
  3927  0158  07A7               	addwf	___flmul@prod^(0+128),f
  3928  0159  1283               	bcf	3,5	;RP0=0, select bank0
  3929  015A  1303               	bcf	3,6	;RP1=0, select bank0
  3930  015B  0865               	movf	??___flmul+1,w
  3931  015C  1103               	clrz
  3932  015D  1803               	skipnc
  3933  015E  3E01               	addlw	1
  3934  015F  1903               	skipnz
  3935  0160  2964               	goto	u3261
  3936  0161  1683               	bsf	3,5	;RP0=1, select bank1
  3937  0162  1303               	bcf	3,6	;RP1=0, select bank1
  3938  0163  07A8               	addwf	(___flmul@prod+1)^(0+128),f
  3939  0164                     u3261:
  3940  0164  1283               	bcf	3,5	;RP0=0, select bank0
  3941  0165  1303               	bcf	3,6	;RP1=0, select bank0
  3942  0166  0866               	movf	??___flmul+2,w
  3943  0167  1103               	clrz
  3944  0168  1803               	skipnc
  3945  0169  3E01               	addlw	1
  3946  016A  1903               	skipnz
  3947  016B  296F               	goto	u3262
  3948  016C  1683               	bsf	3,5	;RP0=1, select bank1
  3949  016D  1303               	bcf	3,6	;RP1=0, select bank1
  3950  016E  07A9               	addwf	(___flmul@prod+2)^(0+128),f
  3951  016F                     u3262:
  3952  016F  1283               	bcf	3,5	;RP0=0, select bank0
  3953  0170  1303               	bcf	3,6	;RP1=0, select bank0
  3954  0171  0867               	movf	??___flmul+3,w
  3955  0172  1103               	clrz
  3956  0173  1803               	skipnc
  3957  0174  3E01               	addlw	1
  3958  0175  1903               	skipnz
  3959  0176  297A               	goto	u3263
  3960  0177  1683               	bsf	3,5	;RP0=1, select bank1
  3961  0178  1303               	bcf	3,6	;RP1=0, select bank1
  3962  0179  07AA               	addwf	(___flmul@prod+3)^(0+128),f
  3963  017A                     u3263:
  3964  017A  1283               	bcf	3,5	;RP0=0, select bank0
  3965  017B  1303               	bcf	3,6	;RP1=0, select bank0
  3966  017C  1683               	bsf	3,5	;RP0=1, select bank1
  3967  017D  1303               	bcf	3,6	;RP1=0, select bank1
  3968  017E  1283               	bcf	3,5	;RP0=0, select bank0
  3969  017F  1303               	bcf	3,6	;RP1=0, select bank0
  3970  0180  085E               	movf	___flmul@b+2,w
  3971  0181  00E4               	movwf	??___flmul
  3972  0182  0864               	movf	??___flmul,w
  3973  0183  00A0               	movwf	__Umul8_16@multiplicand
  3974  0184  0860               	movf	___flmul@a,w
  3975  0185  160A  118A  271B  120A  118A  	fcall	__Umul8_16
  3976  018A  1283               	bcf	3,5	;RP0=0, select bank0
  3977  018B  1303               	bcf	3,6	;RP1=0, select bank0
  3978  018C  0821               	movf	?__Umul8_16+1,w
  3979  018D  1683               	bsf	3,5	;RP0=1, select bank1
  3980  018E  1303               	bcf	3,6	;RP1=0, select bank1
  3981  018F  00AC               	movwf	(___flmul@temp+1)^(0+128)
  3982  0190  1283               	bcf	3,5	;RP0=0, select bank0
  3983  0191  1303               	bcf	3,6	;RP1=0, select bank0
  3984  0192  0820               	movf	?__Umul8_16,w
  3985  0193  1683               	bsf	3,5	;RP0=1, select bank1
  3986  0194  1303               	bcf	3,6	;RP1=0, select bank1
  3987  0195  00AB               	movwf	___flmul@temp^(0+128)
  3988  0196                     l2782:
  3989  0196  082B               	movf	___flmul@temp^(0+128),w
  3990  0197  1283               	bcf	3,5	;RP0=0, select bank0
  3991  0198  1303               	bcf	3,6	;RP1=0, select bank0
  3992  0199  00E4               	movwf	??___flmul
  3993  019A  01E5               	clrf	??___flmul+1
  3994  019B  01E6               	clrf	??___flmul+2
  3995  019C  01E7               	clrf	??___flmul+3
  3996  019D  0864               	movf	??___flmul,w
  3997  019E  1683               	bsf	3,5	;RP0=1, select bank1
  3998  019F  1303               	bcf	3,6	;RP1=0, select bank1
  3999  01A0  07A1               	addwf	___flmul@grs^(0+128),f
  4000  01A1  1283               	bcf	3,5	;RP0=0, select bank0
  4001  01A2  1303               	bcf	3,6	;RP1=0, select bank0
  4002  01A3  0865               	movf	??___flmul+1,w
  4003  01A4  1103               	clrz
  4004  01A5  1803               	skipnc
  4005  01A6  3E01               	addlw	1
  4006  01A7  1903               	skipnz
  4007  01A8  29AC               	goto	u3271
  4008  01A9  1683               	bsf	3,5	;RP0=1, select bank1
  4009  01AA  1303               	bcf	3,6	;RP1=0, select bank1
  4010  01AB  07A2               	addwf	(___flmul@grs+1)^(0+128),f
  4011  01AC                     u3271:
  4012  01AC  1283               	bcf	3,5	;RP0=0, select bank0
  4013  01AD  1303               	bcf	3,6	;RP1=0, select bank0
  4014  01AE  0866               	movf	??___flmul+2,w
  4015  01AF  1103               	clrz
  4016  01B0  1803               	skipnc
  4017  01B1  3E01               	addlw	1
  4018  01B2  1903               	skipnz
  4019  01B3  29B7               	goto	u3272
  4020  01B4  1683               	bsf	3,5	;RP0=1, select bank1
  4021  01B5  1303               	bcf	3,6	;RP1=0, select bank1
  4022  01B6  07A3               	addwf	(___flmul@grs+2)^(0+128),f
  4023  01B7                     u3272:
  4024  01B7  1283               	bcf	3,5	;RP0=0, select bank0
  4025  01B8  1303               	bcf	3,6	;RP1=0, select bank0
  4026  01B9  0867               	movf	??___flmul+3,w
  4027  01BA  1103               	clrz
  4028  01BB  1803               	skipnc
  4029  01BC  3E01               	addlw	1
  4030  01BD  1903               	skipnz
  4031  01BE  29C2               	goto	u3273
  4032  01BF  1683               	bsf	3,5	;RP0=1, select bank1
  4033  01C0  1303               	bcf	3,6	;RP1=0, select bank1
  4034  01C1  07A4               	addwf	(___flmul@grs+3)^(0+128),f
  4035  01C2                     u3273:
  4036  01C2  1283               	bcf	3,5	;RP0=0, select bank0
  4037  01C3  1303               	bcf	3,6	;RP1=0, select bank0
  4038  01C4  1683               	bsf	3,5	;RP0=1, select bank1
  4039  01C5  1303               	bcf	3,6	;RP1=0, select bank1
  4040  01C6                     l2784:
  4041  01C6  082C               	movf	(___flmul@temp^(0+128)+1),w
  4042  01C7  1283               	bcf	3,5	;RP0=0, select bank0
  4043  01C8  1303               	bcf	3,6	;RP1=0, select bank0
  4044  01C9  00E4               	movwf	??___flmul
  4045  01CA  01E5               	clrf	??___flmul+1
  4046  01CB  01E6               	clrf	??___flmul+2
  4047  01CC  01E7               	clrf	??___flmul+3
  4048  01CD  0864               	movf	??___flmul,w
  4049  01CE  1683               	bsf	3,5	;RP0=1, select bank1
  4050  01CF  1303               	bcf	3,6	;RP1=0, select bank1
  4051  01D0  07A7               	addwf	___flmul@prod^(0+128),f
  4052  01D1  1283               	bcf	3,5	;RP0=0, select bank0
  4053  01D2  1303               	bcf	3,6	;RP1=0, select bank0
  4054  01D3  0865               	movf	??___flmul+1,w
  4055  01D4  1103               	clrz
  4056  01D5  1803               	skipnc
  4057  01D6  3E01               	addlw	1
  4058  01D7  1903               	skipnz
  4059  01D8  29DC               	goto	u3281
  4060  01D9  1683               	bsf	3,5	;RP0=1, select bank1
  4061  01DA  1303               	bcf	3,6	;RP1=0, select bank1
  4062  01DB  07A8               	addwf	(___flmul@prod+1)^(0+128),f
  4063  01DC                     u3281:
  4064  01DC  1283               	bcf	3,5	;RP0=0, select bank0
  4065  01DD  1303               	bcf	3,6	;RP1=0, select bank0
  4066  01DE  0866               	movf	??___flmul+2,w
  4067  01DF  1103               	clrz
  4068  01E0  1803               	skipnc
  4069  01E1  3E01               	addlw	1
  4070  01E2  1903               	skipnz
  4071  01E3  29E7               	goto	u3282
  4072  01E4  1683               	bsf	3,5	;RP0=1, select bank1
  4073  01E5  1303               	bcf	3,6	;RP1=0, select bank1
  4074  01E6  07A9               	addwf	(___flmul@prod+2)^(0+128),f
  4075  01E7                     u3282:
  4076  01E7  1283               	bcf	3,5	;RP0=0, select bank0
  4077  01E8  1303               	bcf	3,6	;RP1=0, select bank0
  4078  01E9  0867               	movf	??___flmul+3,w
  4079  01EA  1103               	clrz
  4080  01EB  1803               	skipnc
  4081  01EC  3E01               	addlw	1
  4082  01ED  1903               	skipnz
  4083  01EE  29F2               	goto	u3283
  4084  01EF  1683               	bsf	3,5	;RP0=1, select bank1
  4085  01F0  1303               	bcf	3,6	;RP1=0, select bank1
  4086  01F1  07AA               	addwf	(___flmul@prod+3)^(0+128),f
  4087  01F2                     u3283:
  4088  01F2  1283               	bcf	3,5	;RP0=0, select bank0
  4089  01F3  1303               	bcf	3,6	;RP1=0, select bank0
  4090  01F4  1683               	bsf	3,5	;RP0=1, select bank1
  4091  01F5  1303               	bcf	3,6	;RP1=0, select bank1
  4092  01F6                     l2786:
  4093  01F6  3008               	movlw	8
  4094  01F7  1283               	bcf	3,5	;RP0=0, select bank0
  4095  01F8  1303               	bcf	3,6	;RP1=0, select bank0
  4096  01F9  00E4               	movwf	??___flmul
  4097  01FA                     u3295:
  4098  01FA  1003               	clrc
  4099  01FB  1683               	bsf	3,5	;RP0=1, select bank1
  4100  01FC  1303               	bcf	3,6	;RP1=0, select bank1
  4101  01FD  0DA1               	rlf	___flmul@grs^(0+128),f
  4102  01FE  0DA2               	rlf	(___flmul@grs+1)^(0+128),f
  4103  01FF  0DA3               	rlf	(___flmul@grs+2)^(0+128),f
  4104  0200  0DA4               	rlf	(___flmul@grs+3)^(0+128),f
  4105  0201  1283               	bcf	3,5	;RP0=0, select bank0
  4106  0202  1303               	bcf	3,6	;RP1=0, select bank0
  4107  0203  0BE4               	decfsz	??___flmul,f
  4108  0204  29FA               	goto	u3295
  4109  0205                     l2788:
  4110  0205  085D               	movf	___flmul@b+1,w
  4111  0206  00E4               	movwf	??___flmul
  4112  0207  0864               	movf	??___flmul,w
  4113  0208  00A0               	movwf	__Umul8_16@multiplicand
  4114  0209  0860               	movf	___flmul@a,w
  4115  020A  160A  118A  271B  120A  118A  	fcall	__Umul8_16
  4116  020F  1283               	bcf	3,5	;RP0=0, select bank0
  4117  0210  1303               	bcf	3,6	;RP1=0, select bank0
  4118  0211  0821               	movf	?__Umul8_16+1,w
  4119  0212  1683               	bsf	3,5	;RP0=1, select bank1
  4120  0213  1303               	bcf	3,6	;RP1=0, select bank1
  4121  0214  00AC               	movwf	(___flmul@temp+1)^(0+128)
  4122  0215  1283               	bcf	3,5	;RP0=0, select bank0
  4123  0216  1303               	bcf	3,6	;RP1=0, select bank0
  4124  0217  0820               	movf	?__Umul8_16,w
  4125  0218  1683               	bsf	3,5	;RP0=1, select bank1
  4126  0219  1303               	bcf	3,6	;RP1=0, select bank1
  4127  021A  00AB               	movwf	___flmul@temp^(0+128)
  4128  021B                     l2790:
  4129  021B  082B               	movf	___flmul@temp^(0+128),w
  4130  021C  1283               	bcf	3,5	;RP0=0, select bank0
  4131  021D  1303               	bcf	3,6	;RP1=0, select bank0
  4132  021E  00E4               	movwf	??___flmul
  4133  021F  1683               	bsf	3,5	;RP0=1, select bank1
  4134  0220  1303               	bcf	3,6	;RP1=0, select bank1
  4135  0221  082C               	movf	(___flmul@temp+1)^(0+128),w
  4136  0222  1283               	bcf	3,5	;RP0=0, select bank0
  4137  0223  1303               	bcf	3,6	;RP1=0, select bank0
  4138  0224  00E5               	movwf	??___flmul+1
  4139  0225  01E6               	clrf	??___flmul+2
  4140  0226  01E7               	clrf	??___flmul+3
  4141  0227  0864               	movf	??___flmul,w
  4142  0228  1683               	bsf	3,5	;RP0=1, select bank1
  4143  0229  1303               	bcf	3,6	;RP1=0, select bank1
  4144  022A  07A1               	addwf	___flmul@grs^(0+128),f
  4145  022B  1283               	bcf	3,5	;RP0=0, select bank0
  4146  022C  1303               	bcf	3,6	;RP1=0, select bank0
  4147  022D  0865               	movf	??___flmul+1,w
  4148  022E  1103               	clrz
  4149  022F  1803               	skipnc
  4150  0230  3E01               	addlw	1
  4151  0231  1903               	skipnz
  4152  0232  2A36               	goto	u3301
  4153  0233  1683               	bsf	3,5	;RP0=1, select bank1
  4154  0234  1303               	bcf	3,6	;RP1=0, select bank1
  4155  0235  07A2               	addwf	(___flmul@grs+1)^(0+128),f
  4156  0236                     u3301:
  4157  0236  1283               	bcf	3,5	;RP0=0, select bank0
  4158  0237  1303               	bcf	3,6	;RP1=0, select bank0
  4159  0238  0866               	movf	??___flmul+2,w
  4160  0239  1103               	clrz
  4161  023A  1803               	skipnc
  4162  023B  3E01               	addlw	1
  4163  023C  1903               	skipnz
  4164  023D  2A41               	goto	u3302
  4165  023E  1683               	bsf	3,5	;RP0=1, select bank1
  4166  023F  1303               	bcf	3,6	;RP1=0, select bank1
  4167  0240  07A3               	addwf	(___flmul@grs+2)^(0+128),f
  4168  0241                     u3302:
  4169  0241  1283               	bcf	3,5	;RP0=0, select bank0
  4170  0242  1303               	bcf	3,6	;RP1=0, select bank0
  4171  0243  0867               	movf	??___flmul+3,w
  4172  0244  1103               	clrz
  4173  0245  1803               	skipnc
  4174  0246  3E01               	addlw	1
  4175  0247  1903               	skipnz
  4176  0248  2A4C               	goto	u3303
  4177  0249  1683               	bsf	3,5	;RP0=1, select bank1
  4178  024A  1303               	bcf	3,6	;RP1=0, select bank1
  4179  024B  07A4               	addwf	(___flmul@grs+3)^(0+128),f
  4180  024C                     u3303:
  4181  024C  1283               	bcf	3,5	;RP0=0, select bank0
  4182  024D  1303               	bcf	3,6	;RP1=0, select bank0
  4183  024E  1683               	bsf	3,5	;RP0=1, select bank1
  4184  024F  1303               	bcf	3,6	;RP1=0, select bank1
  4185  0250                     l2792:
  4186  0250  1283               	bcf	3,5	;RP0=0, select bank0
  4187  0251  1303               	bcf	3,6	;RP1=0, select bank0
  4188  0252  085C               	movf	___flmul@b,w
  4189  0253  00E4               	movwf	??___flmul
  4190  0254  0864               	movf	??___flmul,w
  4191  0255  00A0               	movwf	__Umul8_16@multiplicand
  4192  0256  0861               	movf	___flmul@a+1,w
  4193  0257  160A  118A  271B  120A  118A  	fcall	__Umul8_16
  4194  025C  1283               	bcf	3,5	;RP0=0, select bank0
  4195  025D  1303               	bcf	3,6	;RP1=0, select bank0
  4196  025E  0821               	movf	?__Umul8_16+1,w
  4197  025F  1683               	bsf	3,5	;RP0=1, select bank1
  4198  0260  1303               	bcf	3,6	;RP1=0, select bank1
  4199  0261  00AC               	movwf	(___flmul@temp+1)^(0+128)
  4200  0262  1283               	bcf	3,5	;RP0=0, select bank0
  4201  0263  1303               	bcf	3,6	;RP1=0, select bank0
  4202  0264  0820               	movf	?__Umul8_16,w
  4203  0265  1683               	bsf	3,5	;RP0=1, select bank1
  4204  0266  1303               	bcf	3,6	;RP1=0, select bank1
  4205  0267  00AB               	movwf	___flmul@temp^(0+128)
  4206  0268                     l2794:
  4207  0268  082B               	movf	___flmul@temp^(0+128),w
  4208  0269  1283               	bcf	3,5	;RP0=0, select bank0
  4209  026A  1303               	bcf	3,6	;RP1=0, select bank0
  4210  026B  00E4               	movwf	??___flmul
  4211  026C  1683               	bsf	3,5	;RP0=1, select bank1
  4212  026D  1303               	bcf	3,6	;RP1=0, select bank1
  4213  026E  082C               	movf	(___flmul@temp+1)^(0+128),w
  4214  026F  1283               	bcf	3,5	;RP0=0, select bank0
  4215  0270  1303               	bcf	3,6	;RP1=0, select bank0
  4216  0271  00E5               	movwf	??___flmul+1
  4217  0272  01E6               	clrf	??___flmul+2
  4218  0273  01E7               	clrf	??___flmul+3
  4219  0274  0864               	movf	??___flmul,w
  4220  0275  1683               	bsf	3,5	;RP0=1, select bank1
  4221  0276  1303               	bcf	3,6	;RP1=0, select bank1
  4222  0277  07A1               	addwf	___flmul@grs^(0+128),f
  4223  0278  1283               	bcf	3,5	;RP0=0, select bank0
  4224  0279  1303               	bcf	3,6	;RP1=0, select bank0
  4225  027A  0865               	movf	??___flmul+1,w
  4226  027B  1103               	clrz
  4227  027C  1803               	skipnc
  4228  027D  3E01               	addlw	1
  4229  027E  1903               	skipnz
  4230  027F  2A83               	goto	u3311
  4231  0280  1683               	bsf	3,5	;RP0=1, select bank1
  4232  0281  1303               	bcf	3,6	;RP1=0, select bank1
  4233  0282  07A2               	addwf	(___flmul@grs+1)^(0+128),f
  4234  0283                     u3311:
  4235  0283  1283               	bcf	3,5	;RP0=0, select bank0
  4236  0284  1303               	bcf	3,6	;RP1=0, select bank0
  4237  0285  0866               	movf	??___flmul+2,w
  4238  0286  1103               	clrz
  4239  0287  1803               	skipnc
  4240  0288  3E01               	addlw	1
  4241  0289  1903               	skipnz
  4242  028A  2A8E               	goto	u3312
  4243  028B  1683               	bsf	3,5	;RP0=1, select bank1
  4244  028C  1303               	bcf	3,6	;RP1=0, select bank1
  4245  028D  07A3               	addwf	(___flmul@grs+2)^(0+128),f
  4246  028E                     u3312:
  4247  028E  1283               	bcf	3,5	;RP0=0, select bank0
  4248  028F  1303               	bcf	3,6	;RP1=0, select bank0
  4249  0290  0867               	movf	??___flmul+3,w
  4250  0291  1103               	clrz
  4251  0292  1803               	skipnc
  4252  0293  3E01               	addlw	1
  4253  0294  1903               	skipnz
  4254  0295  2A99               	goto	u3313
  4255  0296  1683               	bsf	3,5	;RP0=1, select bank1
  4256  0297  1303               	bcf	3,6	;RP1=0, select bank1
  4257  0298  07A4               	addwf	(___flmul@grs+3)^(0+128),f
  4258  0299                     u3313:
  4259  0299  1283               	bcf	3,5	;RP0=0, select bank0
  4260  029A  1303               	bcf	3,6	;RP1=0, select bank0
  4261  029B  1683               	bsf	3,5	;RP0=1, select bank1
  4262  029C  1303               	bcf	3,6	;RP1=0, select bank1
  4263  029D                     l2796:
  4264  029D  3008               	movlw	8
  4265  029E  1283               	bcf	3,5	;RP0=0, select bank0
  4266  029F  1303               	bcf	3,6	;RP1=0, select bank0
  4267  02A0  00E4               	movwf	??___flmul
  4268  02A1                     u3325:
  4269  02A1  1003               	clrc
  4270  02A2  1683               	bsf	3,5	;RP0=1, select bank1
  4271  02A3  1303               	bcf	3,6	;RP1=0, select bank1
  4272  02A4  0DA1               	rlf	___flmul@grs^(0+128),f
  4273  02A5  0DA2               	rlf	(___flmul@grs+1)^(0+128),f
  4274  02A6  0DA3               	rlf	(___flmul@grs+2)^(0+128),f
  4275  02A7  0DA4               	rlf	(___flmul@grs+3)^(0+128),f
  4276  02A8  1283               	bcf	3,5	;RP0=0, select bank0
  4277  02A9  1303               	bcf	3,6	;RP1=0, select bank0
  4278  02AA  0BE4               	decfsz	??___flmul,f
  4279  02AB  2AA1               	goto	u3325
  4280  02AC  085C               	movf	___flmul@b,w
  4281  02AD  00E4               	movwf	??___flmul
  4282  02AE  0864               	movf	??___flmul,w
  4283  02AF  00A0               	movwf	__Umul8_16@multiplicand
  4284  02B0  0860               	movf	___flmul@a,w
  4285  02B1  160A  118A  271B  120A  118A  	fcall	__Umul8_16
  4286  02B6  1283               	bcf	3,5	;RP0=0, select bank0
  4287  02B7  1303               	bcf	3,6	;RP1=0, select bank0
  4288  02B8  0821               	movf	?__Umul8_16+1,w
  4289  02B9  1683               	bsf	3,5	;RP0=1, select bank1
  4290  02BA  1303               	bcf	3,6	;RP1=0, select bank1
  4291  02BB  00AC               	movwf	(___flmul@temp+1)^(0+128)
  4292  02BC  1283               	bcf	3,5	;RP0=0, select bank0
  4293  02BD  1303               	bcf	3,6	;RP1=0, select bank0
  4294  02BE  0820               	movf	?__Umul8_16,w
  4295  02BF  1683               	bsf	3,5	;RP0=1, select bank1
  4296  02C0  1303               	bcf	3,6	;RP1=0, select bank1
  4297  02C1  00AB               	movwf	___flmul@temp^(0+128)
  4298  02C2                     l2798:
  4299  02C2  082B               	movf	___flmul@temp^(0+128),w
  4300  02C3  1283               	bcf	3,5	;RP0=0, select bank0
  4301  02C4  1303               	bcf	3,6	;RP1=0, select bank0
  4302  02C5  00E4               	movwf	??___flmul
  4303  02C6  1683               	bsf	3,5	;RP0=1, select bank1
  4304  02C7  1303               	bcf	3,6	;RP1=0, select bank1
  4305  02C8  082C               	movf	(___flmul@temp+1)^(0+128),w
  4306  02C9  1283               	bcf	3,5	;RP0=0, select bank0
  4307  02CA  1303               	bcf	3,6	;RP1=0, select bank0
  4308  02CB  00E5               	movwf	??___flmul+1
  4309  02CC  01E6               	clrf	??___flmul+2
  4310  02CD  01E7               	clrf	??___flmul+3
  4311  02CE  0864               	movf	??___flmul,w
  4312  02CF  1683               	bsf	3,5	;RP0=1, select bank1
  4313  02D0  1303               	bcf	3,6	;RP1=0, select bank1
  4314  02D1  07A1               	addwf	___flmul@grs^(0+128),f
  4315  02D2  1283               	bcf	3,5	;RP0=0, select bank0
  4316  02D3  1303               	bcf	3,6	;RP1=0, select bank0
  4317  02D4  0865               	movf	??___flmul+1,w
  4318  02D5  1103               	clrz
  4319  02D6  1803               	skipnc
  4320  02D7  3E01               	addlw	1
  4321  02D8  1903               	skipnz
  4322  02D9  2ADD               	goto	u3331
  4323  02DA  1683               	bsf	3,5	;RP0=1, select bank1
  4324  02DB  1303               	bcf	3,6	;RP1=0, select bank1
  4325  02DC  07A2               	addwf	(___flmul@grs+1)^(0+128),f
  4326  02DD                     u3331:
  4327  02DD  1283               	bcf	3,5	;RP0=0, select bank0
  4328  02DE  1303               	bcf	3,6	;RP1=0, select bank0
  4329  02DF  0866               	movf	??___flmul+2,w
  4330  02E0  1103               	clrz
  4331  02E1  1803               	skipnc
  4332  02E2  3E01               	addlw	1
  4333  02E3  1903               	skipnz
  4334  02E4  2AE8               	goto	u3332
  4335  02E5  1683               	bsf	3,5	;RP0=1, select bank1
  4336  02E6  1303               	bcf	3,6	;RP1=0, select bank1
  4337  02E7  07A3               	addwf	(___flmul@grs+2)^(0+128),f
  4338  02E8                     u3332:
  4339  02E8  1283               	bcf	3,5	;RP0=0, select bank0
  4340  02E9  1303               	bcf	3,6	;RP1=0, select bank0
  4341  02EA  0867               	movf	??___flmul+3,w
  4342  02EB  1103               	clrz
  4343  02EC  1803               	skipnc
  4344  02ED  3E01               	addlw	1
  4345  02EE  1903               	skipnz
  4346  02EF  2AF3               	goto	u3333
  4347  02F0  1683               	bsf	3,5	;RP0=1, select bank1
  4348  02F1  1303               	bcf	3,6	;RP1=0, select bank1
  4349  02F2  07A4               	addwf	(___flmul@grs+3)^(0+128),f
  4350  02F3                     u3333:
  4351  02F3  1283               	bcf	3,5	;RP0=0, select bank0
  4352  02F4  1303               	bcf	3,6	;RP1=0, select bank0
  4353  02F5  1683               	bsf	3,5	;RP0=1, select bank1
  4354  02F6  1303               	bcf	3,6	;RP1=0, select bank1
  4355  02F7                     l2800:
  4356  02F7  1283               	bcf	3,5	;RP0=0, select bank0
  4357  02F8  1303               	bcf	3,6	;RP1=0, select bank0
  4358  02F9  085D               	movf	___flmul@b+1,w
  4359  02FA  00E4               	movwf	??___flmul
  4360  02FB  0864               	movf	??___flmul,w
  4361  02FC  00A0               	movwf	__Umul8_16@multiplicand
  4362  02FD  0862               	movf	___flmul@a+2,w
  4363  02FE  160A  118A  271B  120A  118A  	fcall	__Umul8_16
  4364  0303  1283               	bcf	3,5	;RP0=0, select bank0
  4365  0304  1303               	bcf	3,6	;RP1=0, select bank0
  4366  0305  0821               	movf	?__Umul8_16+1,w
  4367  0306  1683               	bsf	3,5	;RP0=1, select bank1
  4368  0307  1303               	bcf	3,6	;RP1=0, select bank1
  4369  0308  00AC               	movwf	(___flmul@temp+1)^(0+128)
  4370  0309  1283               	bcf	3,5	;RP0=0, select bank0
  4371  030A  1303               	bcf	3,6	;RP1=0, select bank0
  4372  030B  0820               	movf	?__Umul8_16,w
  4373  030C  1683               	bsf	3,5	;RP0=1, select bank1
  4374  030D  1303               	bcf	3,6	;RP1=0, select bank1
  4375  030E  00AB               	movwf	___flmul@temp^(0+128)
  4376  030F  082B               	movf	___flmul@temp^(0+128),w
  4377  0310  1283               	bcf	3,5	;RP0=0, select bank0
  4378  0311  1303               	bcf	3,6	;RP1=0, select bank0
  4379  0312  00E4               	movwf	??___flmul
  4380  0313  1683               	bsf	3,5	;RP0=1, select bank1
  4381  0314  1303               	bcf	3,6	;RP1=0, select bank1
  4382  0315  082C               	movf	(___flmul@temp+1)^(0+128),w
  4383  0316  1283               	bcf	3,5	;RP0=0, select bank0
  4384  0317  1303               	bcf	3,6	;RP1=0, select bank0
  4385  0318  00E5               	movwf	??___flmul+1
  4386  0319  01E6               	clrf	??___flmul+2
  4387  031A  01E7               	clrf	??___flmul+3
  4388  031B  0864               	movf	??___flmul,w
  4389  031C  1683               	bsf	3,5	;RP0=1, select bank1
  4390  031D  1303               	bcf	3,6	;RP1=0, select bank1
  4391  031E  07A7               	addwf	___flmul@prod^(0+128),f
  4392  031F  1283               	bcf	3,5	;RP0=0, select bank0
  4393  0320  1303               	bcf	3,6	;RP1=0, select bank0
  4394  0321  0865               	movf	??___flmul+1,w
  4395  0322  1103               	clrz
  4396  0323  1803               	skipnc
  4397  0324  3E01               	addlw	1
  4398  0325  1903               	skipnz
  4399  0326  2B2A               	goto	u3341
  4400  0327  1683               	bsf	3,5	;RP0=1, select bank1
  4401  0328  1303               	bcf	3,6	;RP1=0, select bank1
  4402  0329  07A8               	addwf	(___flmul@prod+1)^(0+128),f
  4403  032A                     u3341:
  4404  032A  1283               	bcf	3,5	;RP0=0, select bank0
  4405  032B  1303               	bcf	3,6	;RP1=0, select bank0
  4406  032C  0866               	movf	??___flmul+2,w
  4407  032D  1103               	clrz
  4408  032E  1803               	skipnc
  4409  032F  3E01               	addlw	1
  4410  0330  1903               	skipnz
  4411  0331  2B35               	goto	u3342
  4412  0332  1683               	bsf	3,5	;RP0=1, select bank1
  4413  0333  1303               	bcf	3,6	;RP1=0, select bank1
  4414  0334  07A9               	addwf	(___flmul@prod+2)^(0+128),f
  4415  0335                     u3342:
  4416  0335  1283               	bcf	3,5	;RP0=0, select bank0
  4417  0336  1303               	bcf	3,6	;RP1=0, select bank0
  4418  0337  0867               	movf	??___flmul+3,w
  4419  0338  1103               	clrz
  4420  0339  1803               	skipnc
  4421  033A  3E01               	addlw	1
  4422  033B  1903               	skipnz
  4423  033C  2B40               	goto	u3343
  4424  033D  1683               	bsf	3,5	;RP0=1, select bank1
  4425  033E  1303               	bcf	3,6	;RP1=0, select bank1
  4426  033F  07AA               	addwf	(___flmul@prod+3)^(0+128),f
  4427  0340                     u3343:
  4428  0340  1283               	bcf	3,5	;RP0=0, select bank0
  4429  0341  1303               	bcf	3,6	;RP1=0, select bank0
  4430  0342  1683               	bsf	3,5	;RP0=1, select bank1
  4431  0343  1303               	bcf	3,6	;RP1=0, select bank1
  4432  0344                     l2802:
  4433  0344  1283               	bcf	3,5	;RP0=0, select bank0
  4434  0345  1303               	bcf	3,6	;RP1=0, select bank0
  4435  0346  085E               	movf	___flmul@b+2,w
  4436  0347  00E4               	movwf	??___flmul
  4437  0348  0864               	movf	??___flmul,w
  4438  0349  00A0               	movwf	__Umul8_16@multiplicand
  4439  034A  0861               	movf	___flmul@a+1,w
  4440  034B  160A  118A  271B  120A  118A  	fcall	__Umul8_16
  4441  0350  1283               	bcf	3,5	;RP0=0, select bank0
  4442  0351  1303               	bcf	3,6	;RP1=0, select bank0
  4443  0352  0821               	movf	?__Umul8_16+1,w
  4444  0353  1683               	bsf	3,5	;RP0=1, select bank1
  4445  0354  1303               	bcf	3,6	;RP1=0, select bank1
  4446  0355  00AC               	movwf	(___flmul@temp+1)^(0+128)
  4447  0356  1283               	bcf	3,5	;RP0=0, select bank0
  4448  0357  1303               	bcf	3,6	;RP1=0, select bank0
  4449  0358  0820               	movf	?__Umul8_16,w
  4450  0359  1683               	bsf	3,5	;RP0=1, select bank1
  4451  035A  1303               	bcf	3,6	;RP1=0, select bank1
  4452  035B  00AB               	movwf	___flmul@temp^(0+128)
  4453  035C                     l2804:
  4454  035C  082B               	movf	___flmul@temp^(0+128),w
  4455  035D  1283               	bcf	3,5	;RP0=0, select bank0
  4456  035E  1303               	bcf	3,6	;RP1=0, select bank0
  4457  035F  00E4               	movwf	??___flmul
  4458  0360  1683               	bsf	3,5	;RP0=1, select bank1
  4459  0361  1303               	bcf	3,6	;RP1=0, select bank1
  4460  0362  082C               	movf	(___flmul@temp+1)^(0+128),w
  4461  0363  1283               	bcf	3,5	;RP0=0, select bank0
  4462  0364  1303               	bcf	3,6	;RP1=0, select bank0
  4463  0365  00E5               	movwf	??___flmul+1
  4464  0366  01E6               	clrf	??___flmul+2
  4465  0367  01E7               	clrf	??___flmul+3
  4466  0368  0864               	movf	??___flmul,w
  4467  0369  1683               	bsf	3,5	;RP0=1, select bank1
  4468  036A  1303               	bcf	3,6	;RP1=0, select bank1
  4469  036B  07A7               	addwf	___flmul@prod^(0+128),f
  4470  036C  1283               	bcf	3,5	;RP0=0, select bank0
  4471  036D  1303               	bcf	3,6	;RP1=0, select bank0
  4472  036E  0865               	movf	??___flmul+1,w
  4473  036F  1103               	clrz
  4474  0370  1803               	skipnc
  4475  0371  3E01               	addlw	1
  4476  0372  1903               	skipnz
  4477  0373  2B77               	goto	u3351
  4478  0374  1683               	bsf	3,5	;RP0=1, select bank1
  4479  0375  1303               	bcf	3,6	;RP1=0, select bank1
  4480  0376  07A8               	addwf	(___flmul@prod+1)^(0+128),f
  4481  0377                     u3351:
  4482  0377  1283               	bcf	3,5	;RP0=0, select bank0
  4483  0378  1303               	bcf	3,6	;RP1=0, select bank0
  4484  0379  0866               	movf	??___flmul+2,w
  4485  037A  1103               	clrz
  4486  037B  1803               	skipnc
  4487  037C  3E01               	addlw	1
  4488  037D  1903               	skipnz
  4489  037E  2B82               	goto	u3352
  4490  037F  1683               	bsf	3,5	;RP0=1, select bank1
  4491  0380  1303               	bcf	3,6	;RP1=0, select bank1
  4492  0381  07A9               	addwf	(___flmul@prod+2)^(0+128),f
  4493  0382                     u3352:
  4494  0382  1283               	bcf	3,5	;RP0=0, select bank0
  4495  0383  1303               	bcf	3,6	;RP1=0, select bank0
  4496  0384  0867               	movf	??___flmul+3,w
  4497  0385  1103               	clrz
  4498  0386  1803               	skipnc
  4499  0387  3E01               	addlw	1
  4500  0388  1903               	skipnz
  4501  0389  2B8D               	goto	u3353
  4502  038A  1683               	bsf	3,5	;RP0=1, select bank1
  4503  038B  1303               	bcf	3,6	;RP1=0, select bank1
  4504  038C  07AA               	addwf	(___flmul@prod+3)^(0+128),f
  4505  038D                     u3353:
  4506  038D  1283               	bcf	3,5	;RP0=0, select bank0
  4507  038E  1303               	bcf	3,6	;RP1=0, select bank0
  4508  038F  1683               	bsf	3,5	;RP0=1, select bank1
  4509  0390  1303               	bcf	3,6	;RP1=0, select bank1
  4510  0391  1283               	bcf	3,5	;RP0=0, select bank0
  4511  0392  1303               	bcf	3,6	;RP1=0, select bank0
  4512  0393  085E               	movf	___flmul@b+2,w
  4513  0394  00E4               	movwf	??___flmul
  4514  0395  0864               	movf	??___flmul,w
  4515  0396  00A0               	movwf	__Umul8_16@multiplicand
  4516  0397  0862               	movf	___flmul@a+2,w
  4517  0398  160A  118A  271B  120A  118A  	fcall	__Umul8_16
  4518  039D  1283               	bcf	3,5	;RP0=0, select bank0
  4519  039E  1303               	bcf	3,6	;RP1=0, select bank0
  4520  039F  0821               	movf	?__Umul8_16+1,w
  4521  03A0  1683               	bsf	3,5	;RP0=1, select bank1
  4522  03A1  1303               	bcf	3,6	;RP1=0, select bank1
  4523  03A2  00AC               	movwf	(___flmul@temp+1)^(0+128)
  4524  03A3  1283               	bcf	3,5	;RP0=0, select bank0
  4525  03A4  1303               	bcf	3,6	;RP1=0, select bank0
  4526  03A5  0820               	movf	?__Umul8_16,w
  4527  03A6  1683               	bsf	3,5	;RP0=1, select bank1
  4528  03A7  1303               	bcf	3,6	;RP1=0, select bank1
  4529  03A8  00AB               	movwf	___flmul@temp^(0+128)
  4530  03A9                     l2806:
  4531  03A9  082B               	movf	___flmul@temp^(0+128),w
  4532  03AA  1283               	bcf	3,5	;RP0=0, select bank0
  4533  03AB  1303               	bcf	3,6	;RP1=0, select bank0
  4534  03AC  00E4               	movwf	??___flmul
  4535  03AD  1683               	bsf	3,5	;RP0=1, select bank1
  4536  03AE  1303               	bcf	3,6	;RP1=0, select bank1
  4537  03AF  082C               	movf	(___flmul@temp+1)^(0+128),w
  4538  03B0  1283               	bcf	3,5	;RP0=0, select bank0
  4539  03B1  1303               	bcf	3,6	;RP1=0, select bank0
  4540  03B2  00E5               	movwf	??___flmul+1
  4541  03B3  01E6               	clrf	??___flmul+2
  4542  03B4  01E7               	clrf	??___flmul+3
  4543  03B5  3008               	movlw	8
  4544  03B6                     u3365:
  4545  03B6  1003               	clrc
  4546  03B7  0DE4               	rlf	??___flmul,f
  4547  03B8  0DE5               	rlf	??___flmul+1,f
  4548  03B9  0DE6               	rlf	??___flmul+2,f
  4549  03BA  0DE7               	rlf	??___flmul+3,f
  4550  03BB                     u3360:
  4551  03BB  3EFF               	addlw	-1
  4552  03BC  1D03               	skipz
  4553  03BD  2BB6               	goto	u3365
  4554  03BE  0864               	movf	??___flmul,w
  4555  03BF  1683               	bsf	3,5	;RP0=1, select bank1
  4556  03C0  1303               	bcf	3,6	;RP1=0, select bank1
  4557  03C1  07A7               	addwf	___flmul@prod^(0+128),f
  4558  03C2  1283               	bcf	3,5	;RP0=0, select bank0
  4559  03C3  1303               	bcf	3,6	;RP1=0, select bank0
  4560  03C4  0865               	movf	??___flmul+1,w
  4561  03C5  1103               	clrz
  4562  03C6  1803               	skipnc
  4563  03C7  3E01               	addlw	1
  4564  03C8  1903               	skipnz
  4565  03C9  2BCD               	goto	u3371
  4566  03CA  1683               	bsf	3,5	;RP0=1, select bank1
  4567  03CB  1303               	bcf	3,6	;RP1=0, select bank1
  4568  03CC  07A8               	addwf	(___flmul@prod+1)^(0+128),f
  4569  03CD                     u3371:
  4570  03CD  1283               	bcf	3,5	;RP0=0, select bank0
  4571  03CE  1303               	bcf	3,6	;RP1=0, select bank0
  4572  03CF  0866               	movf	??___flmul+2,w
  4573  03D0  1103               	clrz
  4574  03D1  1803               	skipnc
  4575  03D2  3E01               	addlw	1
  4576  03D3  1903               	skipnz
  4577  03D4  2BD8               	goto	u3372
  4578  03D5  1683               	bsf	3,5	;RP0=1, select bank1
  4579  03D6  1303               	bcf	3,6	;RP1=0, select bank1
  4580  03D7  07A9               	addwf	(___flmul@prod+2)^(0+128),f
  4581  03D8                     u3372:
  4582  03D8  1283               	bcf	3,5	;RP0=0, select bank0
  4583  03D9  1303               	bcf	3,6	;RP1=0, select bank0
  4584  03DA  0867               	movf	??___flmul+3,w
  4585  03DB  1103               	clrz
  4586  03DC  1803               	skipnc
  4587  03DD  3E01               	addlw	1
  4588  03DE  1903               	skipnz
  4589  03DF  2BE3               	goto	u3373
  4590  03E0  1683               	bsf	3,5	;RP0=1, select bank1
  4591  03E1  1303               	bcf	3,6	;RP1=0, select bank1
  4592  03E2  07AA               	addwf	(___flmul@prod+3)^(0+128),f
  4593  03E3                     u3373:
  4594  03E3  1283               	bcf	3,5	;RP0=0, select bank0
  4595  03E4  1303               	bcf	3,6	;RP1=0, select bank0
  4596  03E5  1683               	bsf	3,5	;RP0=1, select bank1
  4597  03E6  1303               	bcf	3,6	;RP1=0, select bank1
  4598  03E7                     l2808:
  4599  03E7  0821               	movf	___flmul@grs^(0+128),w
  4600  03E8  1283               	bcf	3,5	;RP0=0, select bank0
  4601  03E9  1303               	bcf	3,6	;RP1=0, select bank0
  4602  03EA  00E4               	movwf	??___flmul
  4603  03EB  1683               	bsf	3,5	;RP0=1, select bank1
  4604  03EC  1303               	bcf	3,6	;RP1=0, select bank1
  4605  03ED  0822               	movf	(___flmul@grs+1)^(0+128),w
  4606  03EE  1283               	bcf	3,5	;RP0=0, select bank0
  4607  03EF  1303               	bcf	3,6	;RP1=0, select bank0
  4608  03F0  00E5               	movwf	??___flmul+1
  4609  03F1  1683               	bsf	3,5	;RP0=1, select bank1
  4610  03F2  1303               	bcf	3,6	;RP1=0, select bank1
  4611  03F3  0823               	movf	(___flmul@grs+2)^(0+128),w
  4612  03F4  1283               	bcf	3,5	;RP0=0, select bank0
  4613  03F5  1303               	bcf	3,6	;RP1=0, select bank0
  4614  03F6  00E6               	movwf	??___flmul+2
  4615  03F7  1683               	bsf	3,5	;RP0=1, select bank1
  4616  03F8  1303               	bcf	3,6	;RP1=0, select bank1
  4617  03F9  0824               	movf	(___flmul@grs+3)^(0+128),w
  4618  03FA  1283               	bcf	3,5	;RP0=0, select bank0
  4619  03FB  1303               	bcf	3,6	;RP1=0, select bank0
  4620  03FC  00E7               	movwf	??___flmul+3
  4621  03FD  3018               	movlw	24
  4622  03FE                     u3385:
  4623  03FE  1003               	clrc
  4624  03FF  0CE7               	rrf	??___flmul+3,f
  4625  0400  0CE6               	rrf	??___flmul+2,f
  4626  0401  0CE5               	rrf	??___flmul+1,f
  4627  0402  0CE4               	rrf	??___flmul,f
  4628  0403                     u3380:
  4629  0403  3EFF               	addlw	-1
  4630  0404  1D03               	skipz
  4631  0405  2BFE               	goto	u3385
  4632  0406  0864               	movf	??___flmul,w
  4633  0407  1683               	bsf	3,5	;RP0=1, select bank1
  4634  0408  1303               	bcf	3,6	;RP1=0, select bank1
  4635  0409  07A7               	addwf	___flmul@prod^(0+128),f
  4636  040A  1283               	bcf	3,5	;RP0=0, select bank0
  4637  040B  1303               	bcf	3,6	;RP1=0, select bank0
  4638  040C  0865               	movf	??___flmul+1,w
  4639  040D  1103               	clrz
  4640  040E  1803               	skipnc
  4641  040F  3E01               	addlw	1
  4642  0410  1903               	skipnz
  4643  0411  2C15               	goto	u3391
  4644  0412  1683               	bsf	3,5	;RP0=1, select bank1
  4645  0413  1303               	bcf	3,6	;RP1=0, select bank1
  4646  0414  07A8               	addwf	(___flmul@prod+1)^(0+128),f
  4647  0415                     u3391:
  4648  0415  1283               	bcf	3,5	;RP0=0, select bank0
  4649  0416  1303               	bcf	3,6	;RP1=0, select bank0
  4650  0417  0866               	movf	??___flmul+2,w
  4651  0418  1103               	clrz
  4652  0419  1803               	skipnc
  4653  041A  3E01               	addlw	1
  4654  041B  1903               	skipnz
  4655  041C  2C20               	goto	u3392
  4656  041D  1683               	bsf	3,5	;RP0=1, select bank1
  4657  041E  1303               	bcf	3,6	;RP1=0, select bank1
  4658  041F  07A9               	addwf	(___flmul@prod+2)^(0+128),f
  4659  0420                     u3392:
  4660  0420  1283               	bcf	3,5	;RP0=0, select bank0
  4661  0421  1303               	bcf	3,6	;RP1=0, select bank0
  4662  0422  0867               	movf	??___flmul+3,w
  4663  0423  1103               	clrz
  4664  0424  1803               	skipnc
  4665  0425  3E01               	addlw	1
  4666  0426  1903               	skipnz
  4667  0427  2C2B               	goto	u3393
  4668  0428  1683               	bsf	3,5	;RP0=1, select bank1
  4669  0429  1303               	bcf	3,6	;RP1=0, select bank1
  4670  042A  07AA               	addwf	(___flmul@prod+3)^(0+128),f
  4671  042B                     u3393:
  4672  042B  1283               	bcf	3,5	;RP0=0, select bank0
  4673  042C  1303               	bcf	3,6	;RP1=0, select bank0
  4674  042D  1683               	bsf	3,5	;RP0=1, select bank1
  4675  042E  1303               	bcf	3,6	;RP1=0, select bank1
  4676  042F                     l2810:
  4677  042F  3008               	movlw	8
  4678  0430  1283               	bcf	3,5	;RP0=0, select bank0
  4679  0431  1303               	bcf	3,6	;RP1=0, select bank0
  4680  0432  00E4               	movwf	??___flmul
  4681  0433                     u3405:
  4682  0433  1003               	clrc
  4683  0434  1683               	bsf	3,5	;RP0=1, select bank1
  4684  0435  1303               	bcf	3,6	;RP1=0, select bank1
  4685  0436  0DA1               	rlf	___flmul@grs^(0+128),f
  4686  0437  0DA2               	rlf	(___flmul@grs+1)^(0+128),f
  4687  0438  0DA3               	rlf	(___flmul@grs+2)^(0+128),f
  4688  0439  0DA4               	rlf	(___flmul@grs+3)^(0+128),f
  4689  043A  1283               	bcf	3,5	;RP0=0, select bank0
  4690  043B  1303               	bcf	3,6	;RP1=0, select bank0
  4691  043C  0BE4               	decfsz	??___flmul,f
  4692  043D  2C33               	goto	u3405
  4693  043E                     l2812:
  4694  043E  1683               	bsf	3,5	;RP0=1, select bank1
  4695  043F  1303               	bcf	3,6	;RP1=0, select bank1
  4696  0440  0826               	movf	___flmul@bexp^(0+128),w
  4697  0441  0725               	addwf	___flmul@aexp^(0+128),w
  4698  0442  1283               	bcf	3,5	;RP0=0, select bank0
  4699  0443  1303               	bcf	3,6	;RP1=0, select bank0
  4700  0444  00E4               	movwf	??___flmul
  4701  0445  01E5               	clrf	??___flmul+1
  4702  0446  0DE5               	rlf	??___flmul+1,f
  4703  0447  0864               	movf	??___flmul,w
  4704  0448  3E82               	addlw	130
  4705  0449  1683               	bsf	3,5	;RP0=1, select bank1
  4706  044A  1303               	bcf	3,6	;RP1=0, select bank1
  4707  044B  00AB               	movwf	___flmul@temp^(0+128)
  4708  044C  1283               	bcf	3,5	;RP0=0, select bank0
  4709  044D  1303               	bcf	3,6	;RP1=0, select bank0
  4710  044E  0865               	movf	??___flmul+1,w
  4711  044F  1803               	skipnc
  4712  0450  3E01               	addlw	1
  4713  0451  3EFF               	addlw	255
  4714  0452  1683               	bsf	3,5	;RP0=1, select bank1
  4715  0453  1303               	bcf	3,6	;RP1=0, select bank1
  4716  0454  00AC               	movwf	(___flmul@temp+1)^(0+128)
  4717  0455  2C83               	goto	l2824
  4718  0456                     l2814:
  4719  0456  3001               	movlw	1
  4720  0457  1283               	bcf	3,5	;RP0=0, select bank0
  4721  0458  1303               	bcf	3,6	;RP1=0, select bank0
  4722  0459  00E4               	movwf	??___flmul
  4723  045A                     u3415:
  4724  045A  1003               	clrc
  4725  045B  1683               	bsf	3,5	;RP0=1, select bank1
  4726  045C  1303               	bcf	3,6	;RP1=0, select bank1
  4727  045D  0DA7               	rlf	___flmul@prod^(0+128),f
  4728  045E  0DA8               	rlf	(___flmul@prod+1)^(0+128),f
  4729  045F  0DA9               	rlf	(___flmul@prod+2)^(0+128),f
  4730  0460  0DAA               	rlf	(___flmul@prod+3)^(0+128),f
  4731  0461  1283               	bcf	3,5	;RP0=0, select bank0
  4732  0462  1303               	bcf	3,6	;RP1=0, select bank0
  4733  0463  0BE4               	decfsz	??___flmul,f
  4734  0464  2C5A               	goto	u3415
  4735  0465                     l2816:
  4736  0465  1683               	bsf	3,5	;RP0=1, select bank1
  4737  0466  1303               	bcf	3,6	;RP1=0, select bank1
  4738  0467  1FA4               	btfss	(___flmul@grs+3)^(0+128),7
  4739  0468  2C6A               	goto	u3421
  4740  0469  2C6B               	goto	u3420
  4741  046A                     u3421:
  4742  046A  2C6C               	goto	l2820
  4743  046B                     u3420:
  4744  046B                     l2818:
  4745  046B  1427               	bsf	___flmul@prod^(0+128),0
  4746  046C                     l2820:
  4747  046C  3001               	movlw	1
  4748  046D  1283               	bcf	3,5	;RP0=0, select bank0
  4749  046E  1303               	bcf	3,6	;RP1=0, select bank0
  4750  046F  00E4               	movwf	??___flmul
  4751  0470                     u3435:
  4752  0470  1003               	clrc
  4753  0471  1683               	bsf	3,5	;RP0=1, select bank1
  4754  0472  1303               	bcf	3,6	;RP1=0, select bank1
  4755  0473  0DA1               	rlf	___flmul@grs^(0+128),f
  4756  0474  0DA2               	rlf	(___flmul@grs+1)^(0+128),f
  4757  0475  0DA3               	rlf	(___flmul@grs+2)^(0+128),f
  4758  0476  0DA4               	rlf	(___flmul@grs+3)^(0+128),f
  4759  0477  1283               	bcf	3,5	;RP0=0, select bank0
  4760  0478  1303               	bcf	3,6	;RP1=0, select bank0
  4761  0479  0BE4               	decfsz	??___flmul,f
  4762  047A  2C70               	goto	u3435
  4763  047B                     l2822:
  4764  047B  30FF               	movlw	255
  4765  047C  1683               	bsf	3,5	;RP0=1, select bank1
  4766  047D  1303               	bcf	3,6	;RP1=0, select bank1
  4767  047E  07AB               	addwf	___flmul@temp^(0+128),f
  4768  047F  1803               	skipnc
  4769  0480  0AAC               	incf	(___flmul@temp+1)^(0+128),f
  4770  0481  30FF               	movlw	255
  4771  0482  07AC               	addwf	(___flmul@temp+1)^(0+128),f
  4772  0483                     l2824:
  4773  0483  1FA9               	btfss	(___flmul@prod+2)^(0+128),7
  4774  0484  2C86               	goto	u3441
  4775  0485  2C87               	goto	u3440
  4776  0486                     u3441:
  4777  0486  2C56               	goto	l2814
  4778  0487                     u3440:
  4779  0487                     l2826:
  4780  0487  01A5               	clrf	___flmul@aexp^(0+128)
  4781  0488                     l2828:
  4782  0488  1FA4               	btfss	(___flmul@grs+3)^(0+128),7
  4783  0489  2C8B               	goto	u3451
  4784  048A  2C8C               	goto	u3450
  4785  048B                     u3451:
  4786  048B  2CBA               	goto	l2836
  4787  048C                     u3450:
  4788  048C                     l2830:
  4789  048C  30FF               	movlw	255
  4790  048D  0521               	andwf	___flmul@grs^(0+128),w
  4791  048E  1283               	bcf	3,5	;RP0=0, select bank0
  4792  048F  1303               	bcf	3,6	;RP1=0, select bank0
  4793  0490  00E4               	movwf	??___flmul
  4794  0491  30FF               	movlw	255
  4795  0492  1683               	bsf	3,5	;RP0=1, select bank1
  4796  0493  1303               	bcf	3,6	;RP1=0, select bank1
  4797  0494  0522               	andwf	(___flmul@grs+1)^(0+128),w
  4798  0495  1283               	bcf	3,5	;RP0=0, select bank0
  4799  0496  1303               	bcf	3,6	;RP1=0, select bank0
  4800  0497  00E5               	movwf	??___flmul+1
  4801  0498  30FF               	movlw	255
  4802  0499  1683               	bsf	3,5	;RP0=1, select bank1
  4803  049A  1303               	bcf	3,6	;RP1=0, select bank1
  4804  049B  0523               	andwf	(___flmul@grs+2)^(0+128),w
  4805  049C  1283               	bcf	3,5	;RP0=0, select bank0
  4806  049D  1303               	bcf	3,6	;RP1=0, select bank0
  4807  049E  00E6               	movwf	??___flmul+2
  4808  049F  307F               	movlw	127
  4809  04A0  1683               	bsf	3,5	;RP0=1, select bank1
  4810  04A1  1303               	bcf	3,6	;RP1=0, select bank1
  4811  04A2  0524               	andwf	(___flmul@grs+3)^(0+128),w
  4812  04A3  1283               	bcf	3,5	;RP0=0, select bank0
  4813  04A4  1303               	bcf	3,6	;RP1=0, select bank0
  4814  04A5  00E7               	movwf	??___flmul+3
  4815  04A6  0867               	movf	??___flmul+3,w
  4816  04A7  0466               	iorwf	??___flmul+2,w
  4817  04A8  0465               	iorwf	??___flmul+1,w
  4818  04A9  0464               	iorwf	??___flmul,w
  4819  04AA  1903               	skipnz
  4820  04AB  2CAD               	goto	u3461
  4821  04AC  2CAE               	goto	u3460
  4822  04AD                     u3461:
  4823  04AD  2CB3               	goto	l769
  4824  04AE                     u3460:
  4825  04AE                     l2832:
  4826  04AE  1683               	bsf	3,5	;RP0=1, select bank1
  4827  04AF  1303               	bcf	3,6	;RP1=0, select bank1
  4828  04B0  01A5               	clrf	___flmul@aexp^(0+128)
  4829  04B1  0AA5               	incf	___flmul@aexp^(0+128),f
  4830  04B2  2CBA               	goto	l2836
  4831  04B3                     l769:
  4832  04B3  1683               	bsf	3,5	;RP0=1, select bank1
  4833  04B4  1303               	bcf	3,6	;RP1=0, select bank1
  4834  04B5  1C27               	btfss	___flmul@prod^(0+128),0
  4835  04B6  2CB8               	goto	u3471
  4836  04B7  2CB9               	goto	u3470
  4837  04B8                     u3471:
  4838  04B8  2CBA               	goto	l2836
  4839  04B9                     u3470:
  4840  04B9  2CAE               	goto	l2832
  4841  04BA                     l2836:
  4842  04BA  0825               	movf	___flmul@aexp^(0+128),w
  4843  04BB  1903               	btfsc	3,2
  4844  04BC  2CBE               	goto	u3481
  4845  04BD  2CBF               	goto	u3480
  4846  04BE                     u3481:
  4847  04BE  2D0C               	goto	l2846
  4848  04BF                     u3480:
  4849  04BF                     l2838:
  4850  04BF  3001               	movlw	1
  4851  04C0  07A7               	addwf	___flmul@prod^(0+128),f
  4852  04C1  3000               	movlw	0
  4853  04C2  1803               	skipnc
  4854  04C3  3001               	movlw	1
  4855  04C4  07A8               	addwf	(___flmul@prod+1)^(0+128),f
  4856  04C5  3000               	movlw	0
  4857  04C6  1803               	skipnc
  4858  04C7  3001               	movlw	1
  4859  04C8  07A9               	addwf	(___flmul@prod+2)^(0+128),f
  4860  04C9  3000               	movlw	0
  4861  04CA  1803               	skipnc
  4862  04CB  3001               	movlw	1
  4863  04CC  07AA               	addwf	(___flmul@prod+3)^(0+128),f
  4864  04CD                     l2840:
  4865  04CD  1C2A               	btfss	(___flmul@prod+3)^(0+128),0
  4866  04CE  2CD0               	goto	u3491
  4867  04CF  2CD1               	goto	u3490
  4868  04D0                     u3491:
  4869  04D0  2D0C               	goto	l2846
  4870  04D1                     u3490:
  4871  04D1                     l2842:
  4872  04D1  0827               	movf	___flmul@prod^(0+128),w
  4873  04D2  1283               	bcf	3,5	;RP0=0, select bank0
  4874  04D3  1303               	bcf	3,6	;RP1=0, select bank0
  4875  04D4  00E4               	movwf	??___flmul
  4876  04D5  1683               	bsf	3,5	;RP0=1, select bank1
  4877  04D6  1303               	bcf	3,6	;RP1=0, select bank1
  4878  04D7  0828               	movf	(___flmul@prod+1)^(0+128),w
  4879  04D8  1283               	bcf	3,5	;RP0=0, select bank0
  4880  04D9  1303               	bcf	3,6	;RP1=0, select bank0
  4881  04DA  00E5               	movwf	??___flmul+1
  4882  04DB  1683               	bsf	3,5	;RP0=1, select bank1
  4883  04DC  1303               	bcf	3,6	;RP1=0, select bank1
  4884  04DD  0829               	movf	(___flmul@prod+2)^(0+128),w
  4885  04DE  1283               	bcf	3,5	;RP0=0, select bank0
  4886  04DF  1303               	bcf	3,6	;RP1=0, select bank0
  4887  04E0  00E6               	movwf	??___flmul+2
  4888  04E1  1683               	bsf	3,5	;RP0=1, select bank1
  4889  04E2  1303               	bcf	3,6	;RP1=0, select bank1
  4890  04E3  082A               	movf	(___flmul@prod+3)^(0+128),w
  4891  04E4  1283               	bcf	3,5	;RP0=0, select bank0
  4892  04E5  1303               	bcf	3,6	;RP1=0, select bank0
  4893  04E6  00E7               	movwf	??___flmul+3
  4894  04E7  3001               	movlw	1
  4895  04E8  00E8               	movwf	??___flmul+4
  4896  04E9                     u3505:
  4897  04E9  0D67               	rlf	??___flmul+3,w
  4898  04EA  0CE7               	rrf	??___flmul+3,f
  4899  04EB  0CE6               	rrf	??___flmul+2,f
  4900  04EC  0CE5               	rrf	??___flmul+1,f
  4901  04ED  0CE4               	rrf	??___flmul,f
  4902  04EE                     u3500:
  4903  04EE  0BE8               	decfsz	??___flmul+4,f
  4904  04EF  2CE9               	goto	u3505
  4905  04F0  0867               	movf	??___flmul+3,w
  4906  04F1  1683               	bsf	3,5	;RP0=1, select bank1
  4907  04F2  1303               	bcf	3,6	;RP1=0, select bank1
  4908  04F3  00AA               	movwf	(___flmul@prod+3)^(0+128)
  4909  04F4  1283               	bcf	3,5	;RP0=0, select bank0
  4910  04F5  1303               	bcf	3,6	;RP1=0, select bank0
  4911  04F6  0866               	movf	??___flmul+2,w
  4912  04F7  1683               	bsf	3,5	;RP0=1, select bank1
  4913  04F8  1303               	bcf	3,6	;RP1=0, select bank1
  4914  04F9  00A9               	movwf	(___flmul@prod+2)^(0+128)
  4915  04FA  1283               	bcf	3,5	;RP0=0, select bank0
  4916  04FB  1303               	bcf	3,6	;RP1=0, select bank0
  4917  04FC  0865               	movf	??___flmul+1,w
  4918  04FD  1683               	bsf	3,5	;RP0=1, select bank1
  4919  04FE  1303               	bcf	3,6	;RP1=0, select bank1
  4920  04FF  00A8               	movwf	(___flmul@prod+1)^(0+128)
  4921  0500  1283               	bcf	3,5	;RP0=0, select bank0
  4922  0501  1303               	bcf	3,6	;RP1=0, select bank0
  4923  0502  0864               	movf	??___flmul,w
  4924  0503  1683               	bsf	3,5	;RP0=1, select bank1
  4925  0504  1303               	bcf	3,6	;RP1=0, select bank1
  4926  0505  00A7               	movwf	___flmul@prod^(0+128)
  4927  0506                     l2844:
  4928  0506  3001               	movlw	1
  4929  0507  07AB               	addwf	___flmul@temp^(0+128),f
  4930  0508  1803               	skipnc
  4931  0509  0AAC               	incf	(___flmul@temp+1)^(0+128),f
  4932  050A  3000               	movlw	0
  4933  050B  07AC               	addwf	(___flmul@temp+1)^(0+128),f
  4934  050C                     l2846:
  4935  050C  082C               	movf	(___flmul@temp+1)^(0+128),w
  4936  050D  3A80               	xorlw	128
  4937  050E  00FF               	movwf	btemp+1
  4938  050F  3080               	movlw	128
  4939  0510  027F               	subwf	btemp+1,w
  4940  0511  1D03               	skipz
  4941  0512  2D15               	goto	u3515
  4942  0513  30FF               	movlw	255
  4943  0514  022B               	subwf	___flmul@temp^(0+128),w
  4944  0515                     u3515:
  4945  0515  1C03               	skipc
  4946  0516  2D18               	goto	u3511
  4947  0517  2D19               	goto	u3510
  4948  0518                     u3511:
  4949  0518  2D24               	goto	l2850
  4950  0519                     u3510:
  4951  0519                     l2848:
  4952  0519  307F               	movlw	127
  4953  051A  1683               	bsf	3,5	;RP0=1, select bank1
  4954  051B  1303               	bcf	3,6	;RP1=0, select bank1
  4955  051C  00AA               	movwf	(___flmul@prod+3)^(0+128)
  4956  051D  3080               	movlw	128
  4957  051E  00A9               	movwf	(___flmul@prod+2)^(0+128)
  4958  051F  3000               	movlw	0
  4959  0520  00A8               	movwf	(___flmul@prod+1)^(0+128)
  4960  0521  3000               	movlw	0
  4961  0522  00A7               	movwf	___flmul@prod^(0+128)
  4962  0523  2D61               	goto	l775
  4963  0524                     l2850:
  4964  0524  1683               	bsf	3,5	;RP0=1, select bank1
  4965  0525  1303               	bcf	3,6	;RP1=0, select bank1
  4966  0526  082C               	movf	(___flmul@temp+1)^(0+128),w
  4967  0527  3A80               	xorlw	128
  4968  0528  00FF               	movwf	btemp+1
  4969  0529  3080               	movlw	128
  4970  052A  027F               	subwf	btemp+1,w
  4971  052B  1D03               	skipz
  4972  052C  2D2F               	goto	u3525
  4973  052D  3001               	movlw	1
  4974  052E  022B               	subwf	___flmul@temp^(0+128),w
  4975  052F                     u3525:
  4976  052F  1803               	skipnc
  4977  0530  2D32               	goto	u3521
  4978  0531  2D33               	goto	u3520
  4979  0532                     u3521:
  4980  0532  2D3F               	goto	l2856
  4981  0533                     u3520:
  4982  0533                     l2852:
  4983  0533  3000               	movlw	0
  4984  0534  1683               	bsf	3,5	;RP0=1, select bank1
  4985  0535  1303               	bcf	3,6	;RP1=0, select bank1
  4986  0536  00AA               	movwf	(___flmul@prod+3)^(0+128)
  4987  0537  3000               	movlw	0
  4988  0538  00A9               	movwf	(___flmul@prod+2)^(0+128)
  4989  0539  3000               	movlw	0
  4990  053A  00A8               	movwf	(___flmul@prod+1)^(0+128)
  4991  053B  3000               	movlw	0
  4992  053C  00A7               	movwf	___flmul@prod^(0+128)
  4993  053D                     l2854:
  4994  053D  01A0               	clrf	___flmul@sign^(0+128)
  4995  053E  2D61               	goto	l775
  4996  053F                     l2856:
  4997  053F  1683               	bsf	3,5	;RP0=1, select bank1
  4998  0540  1303               	bcf	3,6	;RP1=0, select bank1
  4999  0541  082B               	movf	___flmul@temp^(0+128),w
  5000  0542  1283               	bcf	3,5	;RP0=0, select bank0
  5001  0543  1303               	bcf	3,6	;RP1=0, select bank0
  5002  0544  00E4               	movwf	??___flmul
  5003  0545  0864               	movf	??___flmul,w
  5004  0546  1683               	bsf	3,5	;RP0=1, select bank1
  5005  0547  1303               	bcf	3,6	;RP1=0, select bank1
  5006  0548  00A6               	movwf	___flmul@bexp^(0+128)
  5007  0549  30FF               	movlw	255
  5008  054A  05A7               	andwf	___flmul@prod^(0+128),f
  5009  054B  30FF               	movlw	255
  5010  054C  05A8               	andwf	(___flmul@prod+1)^(0+128),f
  5011  054D  307F               	movlw	127
  5012  054E  05A9               	andwf	(___flmul@prod+2)^(0+128),f
  5013  054F  3000               	movlw	0
  5014  0550  05AA               	andwf	(___flmul@prod+3)^(0+128),f
  5015  0551                     l2858:
  5016  0551  1C26               	btfss	___flmul@bexp^(0+128),0
  5017  0552  2D54               	goto	u3531
  5018  0553  2D55               	goto	u3530
  5019  0554                     u3531:
  5020  0554  2D56               	goto	l2862
  5021  0555                     u3530:
  5022  0555                     l2860:
  5023  0555  17A9               	bsf	(___flmul@prod^(0+128)+2),7
  5024  0556                     l2862:
  5025  0556  0826               	movf	___flmul@bexp^(0+128),w
  5026  0557  1283               	bcf	3,5	;RP0=0, select bank0
  5027  0558  1303               	bcf	3,6	;RP1=0, select bank0
  5028  0559  00E4               	movwf	??___flmul
  5029  055A  1003               	clrc
  5030  055B  0C64               	rrf	??___flmul,w
  5031  055C  00E5               	movwf	??___flmul+1
  5032  055D  0865               	movf	??___flmul+1,w
  5033  055E  1683               	bsf	3,5	;RP0=1, select bank1
  5034  055F  1303               	bcf	3,6	;RP1=0, select bank1
  5035  0560  00AA               	movwf	(___flmul@prod^(0+128)+3)
  5036  0561                     l775:
  5037  0561  0820               	movf	___flmul@sign^(0+128),w
  5038  0562  1283               	bcf	3,5	;RP0=0, select bank0
  5039  0563  1303               	bcf	3,6	;RP1=0, select bank0
  5040  0564  00E4               	movwf	??___flmul
  5041  0565  0864               	movf	??___flmul,w
  5042  0566  1683               	bsf	3,5	;RP0=1, select bank1
  5043  0567  1303               	bcf	3,6	;RP1=0, select bank1
  5044  0568  04AA               	iorwf	(___flmul@prod^(0+128)+3),f
  5045  0569                     l2864:
  5046  0569  082A               	movf	(___flmul@prod+3)^(0+128),w
  5047  056A  1283               	bcf	3,5	;RP0=0, select bank0
  5048  056B  1303               	bcf	3,6	;RP1=0, select bank0
  5049  056C  00DF               	movwf	?___flmul+3
  5050  056D  1683               	bsf	3,5	;RP0=1, select bank1
  5051  056E  1303               	bcf	3,6	;RP1=0, select bank1
  5052  056F  0829               	movf	(___flmul@prod+2)^(0+128),w
  5053  0570  1283               	bcf	3,5	;RP0=0, select bank0
  5054  0571  1303               	bcf	3,6	;RP1=0, select bank0
  5055  0572  00DE               	movwf	?___flmul+2
  5056  0573  1683               	bsf	3,5	;RP0=1, select bank1
  5057  0574  1303               	bcf	3,6	;RP1=0, select bank1
  5058  0575  0828               	movf	(___flmul@prod+1)^(0+128),w
  5059  0576  1283               	bcf	3,5	;RP0=0, select bank0
  5060  0577  1303               	bcf	3,6	;RP1=0, select bank0
  5061  0578  00DD               	movwf	?___flmul+1
  5062  0579  1683               	bsf	3,5	;RP0=1, select bank1
  5063  057A  1303               	bcf	3,6	;RP1=0, select bank1
  5064  057B  0827               	movf	___flmul@prod^(0+128),w
  5065  057C  1283               	bcf	3,5	;RP0=0, select bank0
  5066  057D  1303               	bcf	3,6	;RP1=0, select bank0
  5067  057E  00DC               	movwf	?___flmul
  5068  057F                     l763:
  5069  057F  0008               	return
  5070  0580                     __end_of___flmul:
  5071                           
  5072                           	psect	text16
  5073  171B                     __ptext16:	
  5074 ;; *************** function __Umul8_16 *****************
  5075 ;; Defined at:
  5076 ;;		line 4 in file "C:\Program Files\Microchip\xc8\v2.32\pic\sources\c90\common\Umul8_16.c"
  5077 ;; Parameters:    Size  Location     Type
  5078 ;;  multiplier      1    wreg     unsigned char 
  5079 ;;  multiplicand    1    0[BANK0 ] unsigned char 
  5080 ;; Auto vars:     Size  Location     Type
  5081 ;;  multiplier      1    8[BANK0 ] unsigned char 
  5082 ;;  word_mpld       2    6[BANK0 ] unsigned int 
  5083 ;;  product         2    4[BANK0 ] unsigned int 
  5084 ;; Return value:  Size  Location     Type
  5085 ;;                  2    0[BANK0 ] unsigned int 
  5086 ;; Registers used:
  5087 ;;		wreg, status,2, status,0
  5088 ;; Tracked objects:
  5089 ;;		On entry : 0/0
  5090 ;;		On exit  : 0/0
  5091 ;;		Unchanged: 0/0
  5092 ;; Data sizes:     COMMON   BANK0   BANK1   BANK3   BANK2
  5093 ;;      Params:         0       2       0       0       0
  5094 ;;      Locals:         0       5       0       0       0
  5095 ;;      Temps:          0       2       0       0       0
  5096 ;;      Totals:         0       9       0       0       0
  5097 ;;Total ram usage:        9 bytes
  5098 ;; Hardware stack levels used: 1
  5099 ;; Hardware stack levels required when called: 4
  5100 ;; This function calls:
  5101 ;;		Nothing
  5102 ;; This function is called by:
  5103 ;;		___flmul
  5104 ;; This function uses a non-reentrant model
  5105 ;;
  5106                           
  5107                           
  5108                           ;psect for function __Umul8_16
  5109  171B                     __Umul8_16:
  5110                           
  5111                           ;incstack = 0
  5112                           ; Regs used in __Umul8_16: [wreg+status,2+status,0]
  5113                           ;__Umul8_16@multiplier stored from wreg
  5114  171B  1283               	bcf	3,5	;RP0=0, select bank0
  5115  171C  1303               	bcf	3,6	;RP1=0, select bank0
  5116  171D  00A8               	movwf	__Umul8_16@multiplier
  5117  171E                     l2192:
  5118  171E  01A4               	clrf	__Umul8_16@product
  5119  171F  01A5               	clrf	__Umul8_16@product+1
  5120  1720                     l2194:
  5121  1720  0820               	movf	__Umul8_16@multiplicand,w
  5122  1721  00A2               	movwf	??__Umul8_16
  5123  1722  01A3               	clrf	??__Umul8_16+1
  5124  1723  0822               	movf	??__Umul8_16,w
  5125  1724  00A6               	movwf	__Umul8_16@word_mpld
  5126  1725  0823               	movf	??__Umul8_16+1,w
  5127  1726  00A7               	movwf	__Umul8_16@word_mpld+1
  5128  1727                     l2196:
  5129  1727  1C28               	btfss	__Umul8_16@multiplier,0
  5130  1728  2F2A               	goto	u2231
  5131  1729  2F2B               	goto	u2230
  5132  172A                     u2231:
  5133  172A  2F31               	goto	l782
  5134  172B                     u2230:
  5135  172B                     l2198:
  5136  172B  0826               	movf	__Umul8_16@word_mpld,w
  5137  172C  07A4               	addwf	__Umul8_16@product,f
  5138  172D  1803               	skipnc
  5139  172E  0AA5               	incf	__Umul8_16@product+1,f
  5140  172F  0827               	movf	__Umul8_16@word_mpld+1,w
  5141  1730  07A5               	addwf	__Umul8_16@product+1,f
  5142  1731                     l782:
  5143  1731  3001               	movlw	1
  5144  1732                     u2245:
  5145  1732  1003               	clrc
  5146  1733  0DA6               	rlf	__Umul8_16@word_mpld,f
  5147  1734  0DA7               	rlf	__Umul8_16@word_mpld+1,f
  5148  1735  3EFF               	addlw	-1
  5149  1736  1D03               	skipz
  5150  1737  2F32               	goto	u2245
  5151  1738  1003               	clrc
  5152  1739  0CA8               	rrf	__Umul8_16@multiplier,f
  5153  173A                     l2200:
  5154  173A  0828               	movf	__Umul8_16@multiplier,w
  5155  173B  1D03               	btfss	3,2
  5156  173C  2F3E               	goto	u2251
  5157  173D  2F3F               	goto	u2250
  5158  173E                     u2251:
  5159  173E  2F27               	goto	l2196
  5160  173F                     u2250:
  5161  173F                     l2202:
  5162  173F  0825               	movf	__Umul8_16@product+1,w
  5163  1740  00A1               	movwf	?__Umul8_16+1
  5164  1741  0824               	movf	__Umul8_16@product,w
  5165  1742  00A0               	movwf	?__Umul8_16
  5166  1743                     l784:
  5167  1743  0008               	return
  5168  1744                     __end_of__Umul8_16:
  5169                           
  5170                           	psect	text17
  5171  0580                     __ptext17:	
  5172 ;; *************** function ___fldiv *****************
  5173 ;; Defined at:
  5174 ;;		line 8 in file "C:\Program Files\Microchip\xc8\v2.32\pic\sources\c90\common\sprcdiv.c"
  5175 ;; Parameters:    Size  Location     Type
  5176 ;;  a               4   14[BANK0 ] unsigned int 
  5177 ;;  b               4   18[BANK0 ] unsigned int 
  5178 ;; Auto vars:     Size  Location     Type
  5179 ;;  grs             4   34[BANK0 ] unsigned long 
  5180 ;;  rem             4   27[BANK0 ] unsigned long 
  5181 ;;  new_exp         2   32[BANK0 ] int 
  5182 ;;  aexp            1   39[BANK0 ] unsigned char 
  5183 ;;  bexp            1   38[BANK0 ] unsigned char 
  5184 ;;  sign            1   31[BANK0 ] unsigned char 
  5185 ;; Return value:  Size  Location     Type
  5186 ;;                  4   14[BANK0 ] unsigned char 
  5187 ;; Registers used:
  5188 ;;		wreg, status,2, status,0, btemp+1
  5189 ;; Tracked objects:
  5190 ;;		On entry : 0/0
  5191 ;;		On exit  : 0/0
  5192 ;;		Unchanged: 0/0
  5193 ;; Data sizes:     COMMON   BANK0   BANK1   BANK3   BANK2
  5194 ;;      Params:         0       8       0       0       0
  5195 ;;      Locals:         0      13       0       0       0
  5196 ;;      Temps:          0       5       0       0       0
  5197 ;;      Totals:         0      26       0       0       0
  5198 ;;Total ram usage:       26 bytes
  5199 ;; Hardware stack levels used: 1
  5200 ;; Hardware stack levels required when called: 4
  5201 ;; This function calls:
  5202 ;;		Nothing
  5203 ;; This function is called by:
  5204 ;;		_MPU6050_Read
  5205 ;; This function uses a non-reentrant model
  5206 ;;
  5207                           
  5208                           
  5209                           ;psect for function ___fldiv
  5210  0580                     ___fldiv:
  5211  0580                     l2586:	
  5212                           ;incstack = 0
  5213                           ; Regs used in ___fldiv: [wreg+status,2+status,0+btemp+1]
  5214                           
  5215  0580  1283               	bcf	3,5	;RP0=0, select bank0
  5216  0581  1303               	bcf	3,6	;RP1=0, select bank0
  5217  0582  0835               	movf	___fldiv@b+3,w
  5218  0583  3980               	andlw	128
  5219  0584  00B6               	movwf	??___fldiv
  5220  0585  0836               	movf	??___fldiv,w
  5221  0586  00BF               	movwf	___fldiv@sign
  5222  0587                     l2588:
  5223  0587  0835               	movf	___fldiv@b+3,w
  5224  0588  00B6               	movwf	??___fldiv
  5225  0589  0736               	addwf	??___fldiv,w
  5226  058A  00B7               	movwf	??___fldiv+1
  5227  058B  0837               	movf	??___fldiv+1,w
  5228  058C  00C6               	movwf	___fldiv@bexp
  5229  058D                     l2590:
  5230  058D  1FB4               	btfss	___fldiv@b+2,7
  5231  058E  2D90               	goto	u2881
  5232  058F  2D91               	goto	u2880
  5233  0590                     u2881:
  5234  0590  2D92               	goto	l2594
  5235  0591                     u2880:
  5236  0591                     l2592:
  5237  0591  1446               	bsf	___fldiv@bexp,0
  5238  0592                     l2594:
  5239  0592  0846               	movf	___fldiv@bexp,w
  5240  0593  1903               	btfsc	3,2
  5241  0594  2D96               	goto	u2891
  5242  0595  2D97               	goto	u2890
  5243  0596                     u2891:
  5244  0596  2DA7               	goto	l2604
  5245  0597                     u2890:
  5246  0597                     l2596:
  5247  0597  0A46               	incf	___fldiv@bexp,w
  5248  0598  1D03               	btfss	3,2
  5249  0599  2D9B               	goto	u2901
  5250  059A  2D9C               	goto	u2900
  5251  059B                     u2901:
  5252  059B  2DA4               	goto	l2600
  5253  059C                     u2900:
  5254  059C                     l2598:
  5255  059C  3000               	movlw	0
  5256  059D  00B5               	movwf	___fldiv@b+3
  5257  059E  3000               	movlw	0
  5258  059F  00B4               	movwf	___fldiv@b+2
  5259  05A0  3000               	movlw	0
  5260  05A1  00B3               	movwf	___fldiv@b+1
  5261  05A2  3000               	movlw	0
  5262  05A3  00B2               	movwf	___fldiv@b
  5263  05A4                     l2600:
  5264  05A4  17B4               	bsf	___fldiv@b+2,7
  5265  05A5                     l2602:
  5266  05A5  01B5               	clrf	___fldiv@b+3
  5267  05A6  2DAF               	goto	l2606
  5268  05A7                     l2604:
  5269  05A7  3000               	movlw	0
  5270  05A8  00B5               	movwf	___fldiv@b+3
  5271  05A9  3000               	movlw	0
  5272  05AA  00B4               	movwf	___fldiv@b+2
  5273  05AB  3000               	movlw	0
  5274  05AC  00B3               	movwf	___fldiv@b+1
  5275  05AD  3000               	movlw	0
  5276  05AE  00B2               	movwf	___fldiv@b
  5277  05AF                     l2606:
  5278  05AF  0831               	movf	___fldiv@a+3,w
  5279  05B0  3980               	andlw	128
  5280  05B1  00B6               	movwf	??___fldiv
  5281  05B2  0836               	movf	??___fldiv,w
  5282  05B3  06BF               	xorwf	___fldiv@sign,f
  5283  05B4                     l2608:
  5284  05B4  0831               	movf	___fldiv@a+3,w
  5285  05B5  00B6               	movwf	??___fldiv
  5286  05B6  0736               	addwf	??___fldiv,w
  5287  05B7  00B7               	movwf	??___fldiv+1
  5288  05B8  0837               	movf	??___fldiv+1,w
  5289  05B9  00C7               	movwf	___fldiv@aexp
  5290  05BA                     l2610:
  5291  05BA  1FB0               	btfss	___fldiv@a+2,7
  5292  05BB  2DBD               	goto	u2911
  5293  05BC  2DBE               	goto	u2910
  5294  05BD                     u2911:
  5295  05BD  2DBF               	goto	l2614
  5296  05BE                     u2910:
  5297  05BE                     l2612:
  5298  05BE  1447               	bsf	___fldiv@aexp,0
  5299  05BF                     l2614:
  5300  05BF  0847               	movf	___fldiv@aexp,w
  5301  05C0  1903               	btfsc	3,2
  5302  05C1  2DC3               	goto	u2921
  5303  05C2  2DC4               	goto	u2920
  5304  05C3                     u2921:
  5305  05C3  2DD4               	goto	l2624
  5306  05C4                     u2920:
  5307  05C4                     l2616:
  5308  05C4  0A47               	incf	___fldiv@aexp,w
  5309  05C5  1D03               	btfss	3,2
  5310  05C6  2DC8               	goto	u2931
  5311  05C7  2DC9               	goto	u2930
  5312  05C8                     u2931:
  5313  05C8  2DD1               	goto	l2620
  5314  05C9                     u2930:
  5315  05C9                     l2618:
  5316  05C9  3000               	movlw	0
  5317  05CA  00B1               	movwf	___fldiv@a+3
  5318  05CB  3000               	movlw	0
  5319  05CC  00B0               	movwf	___fldiv@a+2
  5320  05CD  3000               	movlw	0
  5321  05CE  00AF               	movwf	___fldiv@a+1
  5322  05CF  3000               	movlw	0
  5323  05D0  00AE               	movwf	___fldiv@a
  5324  05D1                     l2620:
  5325  05D1  17B0               	bsf	___fldiv@a+2,7
  5326  05D2                     l2622:
  5327  05D2  01B1               	clrf	___fldiv@a+3
  5328  05D3  2DDC               	goto	l723
  5329  05D4                     l2624:
  5330  05D4  3000               	movlw	0
  5331  05D5  00B1               	movwf	___fldiv@a+3
  5332  05D6  3000               	movlw	0
  5333  05D7  00B0               	movwf	___fldiv@a+2
  5334  05D8  3000               	movlw	0
  5335  05D9  00AF               	movwf	___fldiv@a+1
  5336  05DA  3000               	movlw	0
  5337  05DB  00AE               	movwf	___fldiv@a
  5338  05DC                     l723:
  5339  05DC  0831               	movf	___fldiv@a+3,w
  5340  05DD  0430               	iorwf	___fldiv@a+2,w
  5341  05DE  042F               	iorwf	___fldiv@a+1,w
  5342  05DF  042E               	iorwf	___fldiv@a,w
  5343  05E0  1D03               	skipz
  5344  05E1  2DE3               	goto	u2941
  5345  05E2  2DE4               	goto	u2940
  5346  05E3                     u2941:
  5347  05E3  2DFD               	goto	l2634
  5348  05E4                     u2940:
  5349  05E4                     l2626:
  5350  05E4  3000               	movlw	0
  5351  05E5  00B5               	movwf	___fldiv@b+3
  5352  05E6  3000               	movlw	0
  5353  05E7  00B4               	movwf	___fldiv@b+2
  5354  05E8  3000               	movlw	0
  5355  05E9  00B3               	movwf	___fldiv@b+1
  5356  05EA  3000               	movlw	0
  5357  05EB  00B2               	movwf	___fldiv@b
  5358  05EC  3080               	movlw	128
  5359  05ED  04B4               	iorwf	___fldiv@b+2,f
  5360  05EE  307F               	movlw	127
  5361  05EF  04B5               	iorwf	___fldiv@b+3,f
  5362  05F0                     l2628:
  5363  05F0  083F               	movf	___fldiv@sign,w
  5364  05F1  00B6               	movwf	??___fldiv
  5365  05F2  0836               	movf	??___fldiv,w
  5366  05F3  04B5               	iorwf	___fldiv@b+3,f
  5367  05F4                     l2630:
  5368  05F4  0835               	movf	___fldiv@b+3,w
  5369  05F5  00B1               	movwf	?___fldiv+3
  5370  05F6  0834               	movf	___fldiv@b+2,w
  5371  05F7  00B0               	movwf	?___fldiv+2
  5372  05F8  0833               	movf	___fldiv@b+1,w
  5373  05F9  00AF               	movwf	?___fldiv+1
  5374  05FA  0832               	movf	___fldiv@b,w
  5375  05FB  00AE               	movwf	?___fldiv
  5376  05FC  2F5C               	goto	l725
  5377  05FD                     l2634:
  5378  05FD  0846               	movf	___fldiv@bexp,w
  5379  05FE  1D03               	btfss	3,2
  5380  05FF  2E01               	goto	u2951
  5381  0600  2E02               	goto	u2950
  5382  0601                     u2951:
  5383  0601  2E0B               	goto	l2640
  5384  0602                     u2950:
  5385  0602                     l2636:
  5386  0602  3000               	movlw	0
  5387  0603  00B1               	movwf	?___fldiv+3
  5388  0604  3000               	movlw	0
  5389  0605  00B0               	movwf	?___fldiv+2
  5390  0606  3000               	movlw	0
  5391  0607  00AF               	movwf	?___fldiv+1
  5392  0608  3000               	movlw	0
  5393  0609  00AE               	movwf	?___fldiv
  5394  060A  2F5C               	goto	l725
  5395  060B                     l2640:
  5396  060B  0846               	movf	___fldiv@bexp,w
  5397  060C  00B6               	movwf	??___fldiv
  5398  060D  01B7               	clrf	??___fldiv+1
  5399  060E  0837               	movf	??___fldiv+1,w
  5400  060F  00B9               	movwf	??___fldiv+3
  5401  0610  0847               	movf	___fldiv@aexp,w
  5402  0611  0236               	subwf	??___fldiv,w
  5403  0612  00B8               	movwf	??___fldiv+2
  5404  0613  1C03               	skipc
  5405  0614  03B9               	decf	??___fldiv+3,f
  5406  0615  0838               	movf	??___fldiv+2,w
  5407  0616  3E7F               	addlw	127
  5408  0617  00C0               	movwf	___fldiv@new_exp
  5409  0618  0839               	movf	??___fldiv+3,w
  5410  0619  1803               	skipnc
  5411  061A  3E01               	addlw	1
  5412  061B  3E00               	addlw	0
  5413  061C  00C1               	movwf	___fldiv@new_exp+1
  5414  061D                     l2642:
  5415  061D  0835               	movf	___fldiv@b+3,w
  5416  061E  00BE               	movwf	___fldiv@rem+3
  5417  061F  0834               	movf	___fldiv@b+2,w
  5418  0620  00BD               	movwf	___fldiv@rem+2
  5419  0621  0833               	movf	___fldiv@b+1,w
  5420  0622  00BC               	movwf	___fldiv@rem+1
  5421  0623  0832               	movf	___fldiv@b,w
  5422  0624  00BB               	movwf	___fldiv@rem
  5423  0625                     l2644:
  5424  0625  3000               	movlw	0
  5425  0626  00B5               	movwf	___fldiv@b+3
  5426  0627  3000               	movlw	0
  5427  0628  00B4               	movwf	___fldiv@b+2
  5428  0629  3000               	movlw	0
  5429  062A  00B3               	movwf	___fldiv@b+1
  5430  062B  3000               	movlw	0
  5431  062C  00B2               	movwf	___fldiv@b
  5432  062D                     l2646:
  5433  062D  3000               	movlw	0
  5434  062E  00C5               	movwf	___fldiv@grs+3
  5435  062F  3000               	movlw	0
  5436  0630  00C4               	movwf	___fldiv@grs+2
  5437  0631  3000               	movlw	0
  5438  0632  00C3               	movwf	___fldiv@grs+1
  5439  0633  3000               	movlw	0
  5440  0634  00C2               	movwf	___fldiv@grs
  5441  0635                     l2648:
  5442  0635  01C7               	clrf	___fldiv@aexp
  5443  0636  2E81               	goto	l2668
  5444  0637                     l2650:
  5445  0637  0847               	movf	___fldiv@aexp,w
  5446  0638  1903               	btfsc	3,2
  5447  0639  2E3B               	goto	u2961
  5448  063A  2E3C               	goto	u2960
  5449  063B                     u2961:
  5450  063B  2E5C               	goto	l2660
  5451  063C                     u2960:
  5452  063C                     l2652:
  5453  063C  3001               	movlw	1
  5454  063D  00B6               	movwf	??___fldiv
  5455  063E                     u2975:
  5456  063E  1003               	clrc
  5457  063F  0DBB               	rlf	___fldiv@rem,f
  5458  0640  0DBC               	rlf	___fldiv@rem+1,f
  5459  0641  0DBD               	rlf	___fldiv@rem+2,f
  5460  0642  0DBE               	rlf	___fldiv@rem+3,f
  5461  0643  0BB6               	decfsz	??___fldiv,f
  5462  0644  2E3E               	goto	u2975
  5463  0645  3001               	movlw	1
  5464  0646  00B6               	movwf	??___fldiv
  5465  0647                     u2985:
  5466  0647  1003               	clrc
  5467  0648  0DB2               	rlf	___fldiv@b,f
  5468  0649  0DB3               	rlf	___fldiv@b+1,f
  5469  064A  0DB4               	rlf	___fldiv@b+2,f
  5470  064B  0DB5               	rlf	___fldiv@b+3,f
  5471  064C  0BB6               	decfsz	??___fldiv,f
  5472  064D  2E47               	goto	u2985
  5473  064E                     l2654:
  5474  064E  1FC5               	btfss	___fldiv@grs+3,7
  5475  064F  2E51               	goto	u2991
  5476  0650  2E52               	goto	u2990
  5477  0651                     u2991:
  5478  0651  2E53               	goto	l2658
  5479  0652                     u2990:
  5480  0652                     l2656:
  5481  0652  1432               	bsf	___fldiv@b,0
  5482  0653                     l2658:
  5483  0653  3001               	movlw	1
  5484  0654  00B6               	movwf	??___fldiv
  5485  0655                     u3005:
  5486  0655  1003               	clrc
  5487  0656  0DC2               	rlf	___fldiv@grs,f
  5488  0657  0DC3               	rlf	___fldiv@grs+1,f
  5489  0658  0DC4               	rlf	___fldiv@grs+2,f
  5490  0659  0DC5               	rlf	___fldiv@grs+3,f
  5491  065A  0BB6               	decfsz	??___fldiv,f
  5492  065B  2E55               	goto	u3005
  5493  065C                     l2660:
  5494  065C  0831               	movf	___fldiv@a+3,w
  5495  065D  023E               	subwf	___fldiv@rem+3,w
  5496  065E  1D03               	skipz
  5497  065F  2E6A               	goto	u3015
  5498  0660  0830               	movf	___fldiv@a+2,w
  5499  0661  023D               	subwf	___fldiv@rem+2,w
  5500  0662  1D03               	skipz
  5501  0663  2E6A               	goto	u3015
  5502  0664  082F               	movf	___fldiv@a+1,w
  5503  0665  023C               	subwf	___fldiv@rem+1,w
  5504  0666  1D03               	skipz
  5505  0667  2E6A               	goto	u3015
  5506  0668  082E               	movf	___fldiv@a,w
  5507  0669  023B               	subwf	___fldiv@rem,w
  5508  066A                     u3015:
  5509  066A  1C03               	skipc
  5510  066B  2E6D               	goto	u3011
  5511  066C  2E6E               	goto	u3010
  5512  066D                     u3011:
  5513  066D  2E7D               	goto	l2666
  5514  066E                     u3010:
  5515  066E                     l2662:
  5516  066E  1745               	bsf	___fldiv@grs+3,6
  5517  066F                     l2664:
  5518  066F  082E               	movf	___fldiv@a,w
  5519  0670  02BB               	subwf	___fldiv@rem,f
  5520  0671  082F               	movf	___fldiv@a+1,w
  5521  0672  1C03               	skipc
  5522  0673  0F2F               	incfsz	___fldiv@a+1,w
  5523  0674  02BC               	subwf	___fldiv@rem+1,f
  5524  0675  0830               	movf	___fldiv@a+2,w
  5525  0676  1C03               	skipc
  5526  0677  0F30               	incfsz	___fldiv@a+2,w
  5527  0678  02BD               	subwf	___fldiv@rem+2,f
  5528  0679  0831               	movf	___fldiv@a+3,w
  5529  067A  1C03               	skipc
  5530  067B  0F31               	incfsz	___fldiv@a+3,w
  5531  067C  02BE               	subwf	___fldiv@rem+3,f
  5532  067D                     l2666:
  5533  067D  3001               	movlw	1
  5534  067E  00B6               	movwf	??___fldiv
  5535  067F  0836               	movf	??___fldiv,w
  5536  0680  07C7               	addwf	___fldiv@aexp,f
  5537  0681                     l2668:
  5538  0681  301A               	movlw	26
  5539  0682  0247               	subwf	___fldiv@aexp,w
  5540  0683  1C03               	skipc
  5541  0684  2E86               	goto	u3021
  5542  0685  2E87               	goto	u3020
  5543  0686                     u3021:
  5544  0686  2E37               	goto	l2650
  5545  0687                     u3020:
  5546  0687                     l2670:
  5547  0687  083E               	movf	___fldiv@rem+3,w
  5548  0688  043D               	iorwf	___fldiv@rem+2,w
  5549  0689  043C               	iorwf	___fldiv@rem+1,w
  5550  068A  043B               	iorwf	___fldiv@rem,w
  5551  068B  1903               	skipnz
  5552  068C  2E8E               	goto	u3031
  5553  068D  2E8F               	goto	u3030
  5554  068E                     u3031:
  5555  068E  2EAE               	goto	l2684
  5556  068F                     u3030:
  5557  068F                     l2672:
  5558  068F  1442               	bsf	___fldiv@grs,0
  5559  0690  2EAE               	goto	l2684
  5560  0691                     l2674:
  5561  0691  3001               	movlw	1
  5562  0692  00B6               	movwf	??___fldiv
  5563  0693                     u3045:
  5564  0693  1003               	clrc
  5565  0694  0DB2               	rlf	___fldiv@b,f
  5566  0695  0DB3               	rlf	___fldiv@b+1,f
  5567  0696  0DB4               	rlf	___fldiv@b+2,f
  5568  0697  0DB5               	rlf	___fldiv@b+3,f
  5569  0698  0BB6               	decfsz	??___fldiv,f
  5570  0699  2E93               	goto	u3045
  5571  069A                     l2676:
  5572  069A  1FC5               	btfss	___fldiv@grs+3,7
  5573  069B  2E9D               	goto	u3051
  5574  069C  2E9E               	goto	u3050
  5575  069D                     u3051:
  5576  069D  2E9F               	goto	l2680
  5577  069E                     u3050:
  5578  069E                     l2678:
  5579  069E  1432               	bsf	___fldiv@b,0
  5580  069F                     l2680:
  5581  069F  3001               	movlw	1
  5582  06A0  00B6               	movwf	??___fldiv
  5583  06A1                     u3065:
  5584  06A1  1003               	clrc
  5585  06A2  0DC2               	rlf	___fldiv@grs,f
  5586  06A3  0DC3               	rlf	___fldiv@grs+1,f
  5587  06A4  0DC4               	rlf	___fldiv@grs+2,f
  5588  06A5  0DC5               	rlf	___fldiv@grs+3,f
  5589  06A6  0BB6               	decfsz	??___fldiv,f
  5590  06A7  2EA1               	goto	u3065
  5591  06A8                     l2682:
  5592  06A8  30FF               	movlw	255
  5593  06A9  07C0               	addwf	___fldiv@new_exp,f
  5594  06AA  1803               	skipnc
  5595  06AB  0AC1               	incf	___fldiv@new_exp+1,f
  5596  06AC  30FF               	movlw	255
  5597  06AD  07C1               	addwf	___fldiv@new_exp+1,f
  5598  06AE                     l2684:
  5599  06AE  1FB4               	btfss	___fldiv@b+2,7
  5600  06AF  2EB1               	goto	u3071
  5601  06B0  2EB2               	goto	u3070
  5602  06B1                     u3071:
  5603  06B1  2E91               	goto	l2674
  5604  06B2                     u3070:
  5605  06B2                     l2686:
  5606  06B2  01C7               	clrf	___fldiv@aexp
  5607  06B3                     l2688:
  5608  06B3  1FC5               	btfss	___fldiv@grs+3,7
  5609  06B4  2EB6               	goto	u3081
  5610  06B5  2EB7               	goto	u3080
  5611  06B6                     u3081:
  5612  06B6  2ED3               	goto	l2696
  5613  06B7                     u3080:
  5614  06B7                     l2690:
  5615  06B7  30FF               	movlw	255
  5616  06B8  0542               	andwf	___fldiv@grs,w
  5617  06B9  00B6               	movwf	??___fldiv
  5618  06BA  30FF               	movlw	255
  5619  06BB  0543               	andwf	___fldiv@grs+1,w
  5620  06BC  00B7               	movwf	??___fldiv+1
  5621  06BD  30FF               	movlw	255
  5622  06BE  0544               	andwf	___fldiv@grs+2,w
  5623  06BF  00B8               	movwf	??___fldiv+2
  5624  06C0  307F               	movlw	127
  5625  06C1  0545               	andwf	___fldiv@grs+3,w
  5626  06C2  00B9               	movwf	??___fldiv+3
  5627  06C3  0839               	movf	??___fldiv+3,w
  5628  06C4  0438               	iorwf	??___fldiv+2,w
  5629  06C5  0437               	iorwf	??___fldiv+1,w
  5630  06C6  0436               	iorwf	??___fldiv,w
  5631  06C7  1903               	skipnz
  5632  06C8  2ECA               	goto	u3091
  5633  06C9  2ECB               	goto	u3090
  5634  06CA                     u3091:
  5635  06CA  2ECE               	goto	l739
  5636  06CB                     u3090:
  5637  06CB                     l2692:
  5638  06CB  01C7               	clrf	___fldiv@aexp
  5639  06CC  0AC7               	incf	___fldiv@aexp,f
  5640  06CD  2ED3               	goto	l2696
  5641  06CE                     l739:
  5642  06CE  1C32               	btfss	___fldiv@b,0
  5643  06CF  2ED1               	goto	u3101
  5644  06D0  2ED2               	goto	u3100
  5645  06D1                     u3101:
  5646  06D1  2ED3               	goto	l2696
  5647  06D2                     u3100:
  5648  06D2  2ECB               	goto	l2692
  5649  06D3                     l2696:
  5650  06D3  0847               	movf	___fldiv@aexp,w
  5651  06D4  1903               	btfsc	3,2
  5652  06D5  2ED7               	goto	u3111
  5653  06D6  2ED8               	goto	u3110
  5654  06D7                     u3111:
  5655  06D7  2F09               	goto	l2706
  5656  06D8                     u3110:
  5657  06D8                     l2698:
  5658  06D8  3001               	movlw	1
  5659  06D9  07B2               	addwf	___fldiv@b,f
  5660  06DA  3000               	movlw	0
  5661  06DB  1803               	skipnc
  5662  06DC  3001               	movlw	1
  5663  06DD  07B3               	addwf	___fldiv@b+1,f
  5664  06DE  3000               	movlw	0
  5665  06DF  1803               	skipnc
  5666  06E0  3001               	movlw	1
  5667  06E1  07B4               	addwf	___fldiv@b+2,f
  5668  06E2  3000               	movlw	0
  5669  06E3  1803               	skipnc
  5670  06E4  3001               	movlw	1
  5671  06E5  07B5               	addwf	___fldiv@b+3,f
  5672  06E6                     l2700:
  5673  06E6  1C35               	btfss	___fldiv@b+3,0
  5674  06E7  2EE9               	goto	u3121
  5675  06E8  2EEA               	goto	u3120
  5676  06E9                     u3121:
  5677  06E9  2F09               	goto	l2706
  5678  06EA                     u3120:
  5679  06EA                     l2702:
  5680  06EA  0832               	movf	___fldiv@b,w
  5681  06EB  00B6               	movwf	??___fldiv
  5682  06EC  0833               	movf	___fldiv@b+1,w
  5683  06ED  00B7               	movwf	??___fldiv+1
  5684  06EE  0834               	movf	___fldiv@b+2,w
  5685  06EF  00B8               	movwf	??___fldiv+2
  5686  06F0  0835               	movf	___fldiv@b+3,w
  5687  06F1  00B9               	movwf	??___fldiv+3
  5688  06F2  3001               	movlw	1
  5689  06F3  00BA               	movwf	??___fldiv+4
  5690  06F4                     u3135:
  5691  06F4  0D39               	rlf	??___fldiv+3,w
  5692  06F5  0CB9               	rrf	??___fldiv+3,f
  5693  06F6  0CB8               	rrf	??___fldiv+2,f
  5694  06F7  0CB7               	rrf	??___fldiv+1,f
  5695  06F8  0CB6               	rrf	??___fldiv,f
  5696  06F9                     u3130:
  5697  06F9  0BBA               	decfsz	??___fldiv+4,f
  5698  06FA  2EF4               	goto	u3135
  5699  06FB  0839               	movf	??___fldiv+3,w
  5700  06FC  00B5               	movwf	___fldiv@b+3
  5701  06FD  0838               	movf	??___fldiv+2,w
  5702  06FE  00B4               	movwf	___fldiv@b+2
  5703  06FF  0837               	movf	??___fldiv+1,w
  5704  0700  00B3               	movwf	___fldiv@b+1
  5705  0701  0836               	movf	??___fldiv,w
  5706  0702  00B2               	movwf	___fldiv@b
  5707  0703                     l2704:
  5708  0703  3001               	movlw	1
  5709  0704  07C0               	addwf	___fldiv@new_exp,f
  5710  0705  1803               	skipnc
  5711  0706  0AC1               	incf	___fldiv@new_exp+1,f
  5712  0707  3000               	movlw	0
  5713  0708  07C1               	addwf	___fldiv@new_exp+1,f
  5714  0709                     l2706:
  5715  0709  0841               	movf	___fldiv@new_exp+1,w
  5716  070A  3A80               	xorlw	128
  5717  070B  00FF               	movwf	btemp+1
  5718  070C  3080               	movlw	128
  5719  070D  027F               	subwf	btemp+1,w
  5720  070E  1D03               	skipz
  5721  070F  2F12               	goto	u3145
  5722  0710  30FF               	movlw	255
  5723  0711  0240               	subwf	___fldiv@new_exp,w
  5724  0712                     u3145:
  5725  0712  1C03               	skipc
  5726  0713  2F15               	goto	u3141
  5727  0714  2F16               	goto	u3140
  5728  0715                     u3141:
  5729  0715  2F24               	goto	l2710
  5730  0716                     u3140:
  5731  0716                     l2708:
  5732  0716  30FF               	movlw	255
  5733  0717  1283               	bcf	3,5	;RP0=0, select bank0
  5734  0718  1303               	bcf	3,6	;RP1=0, select bank0
  5735  0719  00C0               	movwf	___fldiv@new_exp
  5736  071A  3000               	movlw	0
  5737  071B  00C1               	movwf	___fldiv@new_exp+1
  5738  071C  3000               	movlw	0
  5739  071D  00B5               	movwf	___fldiv@b+3
  5740  071E  3000               	movlw	0
  5741  071F  00B4               	movwf	___fldiv@b+2
  5742  0720  3000               	movlw	0
  5743  0721  00B3               	movwf	___fldiv@b+1
  5744  0722  3000               	movlw	0
  5745  0723  00B2               	movwf	___fldiv@b
  5746  0724                     l2710:
  5747  0724  1283               	bcf	3,5	;RP0=0, select bank0
  5748  0725  1303               	bcf	3,6	;RP1=0, select bank0
  5749  0726  0841               	movf	___fldiv@new_exp+1,w
  5750  0727  3A80               	xorlw	128
  5751  0728  00FF               	movwf	btemp+1
  5752  0729  3080               	movlw	128
  5753  072A  027F               	subwf	btemp+1,w
  5754  072B  1D03               	skipz
  5755  072C  2F2F               	goto	u3155
  5756  072D  3001               	movlw	1
  5757  072E  0240               	subwf	___fldiv@new_exp,w
  5758  072F                     u3155:
  5759  072F  1803               	skipnc
  5760  0730  2F32               	goto	u3151
  5761  0731  2F33               	goto	u3150
  5762  0732                     u3151:
  5763  0732  2F40               	goto	l745
  5764  0733                     u3150:
  5765  0733                     l2712:
  5766  0733  1283               	bcf	3,5	;RP0=0, select bank0
  5767  0734  1303               	bcf	3,6	;RP1=0, select bank0
  5768  0735  01C0               	clrf	___fldiv@new_exp
  5769  0736  01C1               	clrf	___fldiv@new_exp+1
  5770  0737                     l2714:
  5771  0737  3000               	movlw	0
  5772  0738  00B5               	movwf	___fldiv@b+3
  5773  0739  3000               	movlw	0
  5774  073A  00B4               	movwf	___fldiv@b+2
  5775  073B  3000               	movlw	0
  5776  073C  00B3               	movwf	___fldiv@b+1
  5777  073D  3000               	movlw	0
  5778  073E  00B2               	movwf	___fldiv@b
  5779  073F                     l2716:
  5780  073F  01BF               	clrf	___fldiv@sign
  5781  0740                     l745:
  5782  0740  1283               	bcf	3,5	;RP0=0, select bank0
  5783  0741  1303               	bcf	3,6	;RP1=0, select bank0
  5784  0742  0840               	movf	___fldiv@new_exp,w
  5785  0743  00B6               	movwf	??___fldiv
  5786  0744  0836               	movf	??___fldiv,w
  5787  0745  00C6               	movwf	___fldiv@bexp
  5788  0746                     l2718:
  5789  0746  1C46               	btfss	___fldiv@bexp,0
  5790  0747  2F49               	goto	u3161
  5791  0748  2F4A               	goto	u3160
  5792  0749                     u3161:
  5793  0749  2F4C               	goto	l2722
  5794  074A                     u3160:
  5795  074A                     l2720:
  5796  074A  17B4               	bsf	___fldiv@b+2,7
  5797  074B  2F50               	goto	l747
  5798  074C                     l2722:
  5799  074C  307F               	movlw	127
  5800  074D  00B6               	movwf	??___fldiv
  5801  074E  0836               	movf	??___fldiv,w
  5802  074F  05B4               	andwf	___fldiv@b+2,f
  5803  0750                     l747:
  5804  0750  0846               	movf	___fldiv@bexp,w
  5805  0751  00B6               	movwf	??___fldiv
  5806  0752  1003               	clrc
  5807  0753  0C36               	rrf	??___fldiv,w
  5808  0754  00B7               	movwf	??___fldiv+1
  5809  0755  0837               	movf	??___fldiv+1,w
  5810  0756  00B5               	movwf	___fldiv@b+3
  5811  0757  083F               	movf	___fldiv@sign,w
  5812  0758  00B6               	movwf	??___fldiv
  5813  0759  0836               	movf	??___fldiv,w
  5814  075A  04B5               	iorwf	___fldiv@b+3,f
  5815  075B  2DF4               	goto	l2630
  5816  075C                     l725:
  5817  075C  0008               	return
  5818  075D                     __end_of___fldiv:
  5819                           
  5820                           	psect	text18
  5821  0D78                     __ptext18:	
  5822 ;; *************** function ___fladd *****************
  5823 ;; Defined at:
  5824 ;;		line 10 in file "C:\Program Files\Microchip\xc8\v2.32\pic\sources\c90\common\sprcadd.c"
  5825 ;; Parameters:    Size  Location     Type
  5826 ;;  b               4   40[BANK0 ] unsigned char 
  5827 ;;  a               4   44[BANK0 ] unsigned char 
  5828 ;; Auto vars:     Size  Location     Type
  5829 ;;  grs             1   59[BANK0 ] unsigned char 
  5830 ;;  bexp            1   58[BANK0 ] unsigned char 
  5831 ;;  aexp            1   57[BANK0 ] unsigned char 
  5832 ;;  signs           1   56[BANK0 ] unsigned char 
  5833 ;; Return value:  Size  Location     Type
  5834 ;;                  4   40[BANK0 ] unsigned char 
  5835 ;; Registers used:
  5836 ;;		wreg, status,2, status,0, btemp+1
  5837 ;; Tracked objects:
  5838 ;;		On entry : 0/0
  5839 ;;		On exit  : 0/0
  5840 ;;		Unchanged: 0/0
  5841 ;; Data sizes:     COMMON   BANK0   BANK1   BANK3   BANK2
  5842 ;;      Params:         0       8       0       0       0
  5843 ;;      Locals:         0       4       0       0       0
  5844 ;;      Temps:          0       8       0       0       0
  5845 ;;      Totals:         0      20       0       0       0
  5846 ;;Total ram usage:       20 bytes
  5847 ;; Hardware stack levels used: 1
  5848 ;; Hardware stack levels required when called: 4
  5849 ;; This function calls:
  5850 ;;		Nothing
  5851 ;; This function is called by:
  5852 ;;		_MPU6050_Read
  5853 ;; This function uses a non-reentrant model
  5854 ;;
  5855                           
  5856                           
  5857                           ;psect for function ___fladd
  5858  0D78                     ___fladd:
  5859  0D78                     l2392:	
  5860                           ;incstack = 0
  5861                           ; Regs used in ___fladd: [wreg+status,2+status,0+btemp+1]
  5862                           
  5863  0D78  1283               	bcf	3,5	;RP0=0, select bank0
  5864  0D79  1303               	bcf	3,6	;RP1=0, select bank0
  5865  0D7A  084B               	movf	___fladd@b+3,w
  5866  0D7B  3980               	andlw	128
  5867  0D7C  00D0               	movwf	??___fladd
  5868  0D7D  0850               	movf	??___fladd,w
  5869  0D7E  00D8               	movwf	___fladd@signs
  5870  0D7F                     l2394:
  5871  0D7F  084B               	movf	___fladd@b+3,w
  5872  0D80  00D0               	movwf	??___fladd
  5873  0D81  0750               	addwf	??___fladd,w
  5874  0D82  00D1               	movwf	??___fladd+1
  5875  0D83  0851               	movf	??___fladd+1,w
  5876  0D84  00DA               	movwf	___fladd@bexp
  5877  0D85                     l2396:
  5878  0D85  1FCA               	btfss	___fladd@b+2,7
  5879  0D86  2D88               	goto	u2421
  5880  0D87  2D89               	goto	u2420
  5881  0D88                     u2421:
  5882  0D88  2D8A               	goto	l2400
  5883  0D89                     u2420:
  5884  0D89                     l2398:
  5885  0D89  145A               	bsf	___fladd@bexp,0
  5886  0D8A                     l2400:
  5887  0D8A  085A               	movf	___fladd@bexp,w
  5888  0D8B  1903               	btfsc	3,2
  5889  0D8C  2D8E               	goto	u2431
  5890  0D8D  2D8F               	goto	u2430
  5891  0D8E                     u2431:
  5892  0D8E  2D9F               	goto	l2410
  5893  0D8F                     u2430:
  5894  0D8F                     l2402:
  5895  0D8F  0A5A               	incf	___fladd@bexp,w
  5896  0D90  1D03               	btfss	3,2
  5897  0D91  2D93               	goto	u2441
  5898  0D92  2D94               	goto	u2440
  5899  0D93                     u2441:
  5900  0D93  2D9C               	goto	l2406
  5901  0D94                     u2440:
  5902  0D94                     l2404:
  5903  0D94  3000               	movlw	0
  5904  0D95  00CB               	movwf	___fladd@b+3
  5905  0D96  3000               	movlw	0
  5906  0D97  00CA               	movwf	___fladd@b+2
  5907  0D98  3000               	movlw	0
  5908  0D99  00C9               	movwf	___fladd@b+1
  5909  0D9A  3000               	movlw	0
  5910  0D9B  00C8               	movwf	___fladd@b
  5911  0D9C                     l2406:
  5912  0D9C  17CA               	bsf	___fladd@b+2,7
  5913  0D9D                     l2408:
  5914  0D9D  01CB               	clrf	___fladd@b+3
  5915  0D9E  2DA7               	goto	l2412
  5916  0D9F                     l2410:
  5917  0D9F  3000               	movlw	0
  5918  0DA0  00CB               	movwf	___fladd@b+3
  5919  0DA1  3000               	movlw	0
  5920  0DA2  00CA               	movwf	___fladd@b+2
  5921  0DA3  3000               	movlw	0
  5922  0DA4  00C9               	movwf	___fladd@b+1
  5923  0DA5  3000               	movlw	0
  5924  0DA6  00C8               	movwf	___fladd@b
  5925  0DA7                     l2412:
  5926  0DA7  084F               	movf	___fladd@a+3,w
  5927  0DA8  3980               	andlw	128
  5928  0DA9  00D0               	movwf	??___fladd
  5929  0DAA  0850               	movf	??___fladd,w
  5930  0DAB  00D9               	movwf	___fladd@aexp
  5931  0DAC                     l2414:
  5932  0DAC  0859               	movf	___fladd@aexp,w
  5933  0DAD  0658               	xorwf	___fladd@signs,w
  5934  0DAE  1903               	skipnz
  5935  0DAF  2DB1               	goto	u2451
  5936  0DB0  2DB2               	goto	u2450
  5937  0DB1                     u2451:
  5938  0DB1  2DB3               	goto	l2418
  5939  0DB2                     u2450:
  5940  0DB2                     l2416:
  5941  0DB2  1758               	bsf	___fladd@signs,6
  5942  0DB3                     l2418:
  5943  0DB3  084F               	movf	___fladd@a+3,w
  5944  0DB4  00D0               	movwf	??___fladd
  5945  0DB5  0750               	addwf	??___fladd,w
  5946  0DB6  00D1               	movwf	??___fladd+1
  5947  0DB7  0851               	movf	??___fladd+1,w
  5948  0DB8  00D9               	movwf	___fladd@aexp
  5949  0DB9                     l2420:
  5950  0DB9  1FCE               	btfss	___fladd@a+2,7
  5951  0DBA  2DBC               	goto	u2461
  5952  0DBB  2DBD               	goto	u2460
  5953  0DBC                     u2461:
  5954  0DBC  2DBE               	goto	l2424
  5955  0DBD                     u2460:
  5956  0DBD                     l2422:
  5957  0DBD  1459               	bsf	___fladd@aexp,0
  5958  0DBE                     l2424:
  5959  0DBE  0859               	movf	___fladd@aexp,w
  5960  0DBF  1903               	btfsc	3,2
  5961  0DC0  2DC2               	goto	u2471
  5962  0DC1  2DC3               	goto	u2470
  5963  0DC2                     u2471:
  5964  0DC2  2DD3               	goto	l2434
  5965  0DC3                     u2470:
  5966  0DC3                     l2426:
  5967  0DC3  0A59               	incf	___fladd@aexp,w
  5968  0DC4  1D03               	btfss	3,2
  5969  0DC5  2DC7               	goto	u2481
  5970  0DC6  2DC8               	goto	u2480
  5971  0DC7                     u2481:
  5972  0DC7  2DD0               	goto	l2430
  5973  0DC8                     u2480:
  5974  0DC8                     l2428:
  5975  0DC8  3000               	movlw	0
  5976  0DC9  00CF               	movwf	___fladd@a+3
  5977  0DCA  3000               	movlw	0
  5978  0DCB  00CE               	movwf	___fladd@a+2
  5979  0DCC  3000               	movlw	0
  5980  0DCD  00CD               	movwf	___fladd@a+1
  5981  0DCE  3000               	movlw	0
  5982  0DCF  00CC               	movwf	___fladd@a
  5983  0DD0                     l2430:
  5984  0DD0  17CE               	bsf	___fladd@a+2,7
  5985  0DD1                     l2432:
  5986  0DD1  01CF               	clrf	___fladd@a+3
  5987  0DD2  2DDB               	goto	l667
  5988  0DD3                     l2434:
  5989  0DD3  3000               	movlw	0
  5990  0DD4  00CF               	movwf	___fladd@a+3
  5991  0DD5  3000               	movlw	0
  5992  0DD6  00CE               	movwf	___fladd@a+2
  5993  0DD7  3000               	movlw	0
  5994  0DD8  00CD               	movwf	___fladd@a+1
  5995  0DD9  3000               	movlw	0
  5996  0DDA  00CC               	movwf	___fladd@a
  5997  0DDB                     l667:
  5998  0DDB  085A               	movf	___fladd@bexp,w
  5999  0DDC  0259               	subwf	___fladd@aexp,w
  6000  0DDD  1803               	skipnc
  6001  0DDE  2DE0               	goto	u2491
  6002  0DDF  2DE1               	goto	u2490
  6003  0DE0                     u2491:
  6004  0DE0  2E25               	goto	l2470
  6005  0DE1                     u2490:
  6006  0DE1                     l2436:
  6007  0DE1  1F58               	btfss	___fladd@signs,6
  6008  0DE2  2DE4               	goto	u2501
  6009  0DE3  2DE5               	goto	u2500
  6010  0DE4                     u2501:
  6011  0DE4  2DE9               	goto	l2440
  6012  0DE5                     u2500:
  6013  0DE5                     l2438:
  6014  0DE5  3080               	movlw	128
  6015  0DE6  00D0               	movwf	??___fladd
  6016  0DE7  0850               	movf	??___fladd,w
  6017  0DE8  06D8               	xorwf	___fladd@signs,f
  6018  0DE9                     l2440:
  6019  0DE9  085A               	movf	___fladd@bexp,w
  6020  0DEA  00D0               	movwf	??___fladd
  6021  0DEB  0850               	movf	??___fladd,w
  6022  0DEC  00DB               	movwf	___fladd@grs
  6023  0DED                     l2442:
  6024  0DED  0859               	movf	___fladd@aexp,w
  6025  0DEE  00D0               	movwf	??___fladd
  6026  0DEF  0850               	movf	??___fladd,w
  6027  0DF0  00DA               	movwf	___fladd@bexp
  6028  0DF1                     l2444:
  6029  0DF1  085B               	movf	___fladd@grs,w
  6030  0DF2  00D0               	movwf	??___fladd
  6031  0DF3  0850               	movf	??___fladd,w
  6032  0DF4  00D9               	movwf	___fladd@aexp
  6033  0DF5                     l2446:
  6034  0DF5  0848               	movf	___fladd@b,w
  6035  0DF6  00D0               	movwf	??___fladd
  6036  0DF7  0850               	movf	??___fladd,w
  6037  0DF8  00DB               	movwf	___fladd@grs
  6038  0DF9                     l2448:
  6039  0DF9  084C               	movf	___fladd@a,w
  6040  0DFA  00D0               	movwf	??___fladd
  6041  0DFB  0850               	movf	??___fladd,w
  6042  0DFC  00C8               	movwf	___fladd@b
  6043  0DFD                     l2450:
  6044  0DFD  085B               	movf	___fladd@grs,w
  6045  0DFE  00D0               	movwf	??___fladd
  6046  0DFF  0850               	movf	??___fladd,w
  6047  0E00  00CC               	movwf	___fladd@a
  6048  0E01                     l2452:
  6049  0E01  0849               	movf	___fladd@b+1,w
  6050  0E02  00D0               	movwf	??___fladd
  6051  0E03  0850               	movf	??___fladd,w
  6052  0E04  00DB               	movwf	___fladd@grs
  6053  0E05                     l2454:
  6054  0E05  084D               	movf	___fladd@a+1,w
  6055  0E06  00D0               	movwf	??___fladd
  6056  0E07  0850               	movf	??___fladd,w
  6057  0E08  00C9               	movwf	___fladd@b+1
  6058  0E09                     l2456:
  6059  0E09  085B               	movf	___fladd@grs,w
  6060  0E0A  00D0               	movwf	??___fladd
  6061  0E0B  0850               	movf	??___fladd,w
  6062  0E0C  00CD               	movwf	___fladd@a+1
  6063  0E0D                     l2458:
  6064  0E0D  084A               	movf	___fladd@b+2,w
  6065  0E0E  00D0               	movwf	??___fladd
  6066  0E0F  0850               	movf	??___fladd,w
  6067  0E10  00DB               	movwf	___fladd@grs
  6068  0E11                     l2460:
  6069  0E11  084E               	movf	___fladd@a+2,w
  6070  0E12  00D0               	movwf	??___fladd
  6071  0E13  0850               	movf	??___fladd,w
  6072  0E14  00CA               	movwf	___fladd@b+2
  6073  0E15                     l2462:
  6074  0E15  085B               	movf	___fladd@grs,w
  6075  0E16  00D0               	movwf	??___fladd
  6076  0E17  0850               	movf	??___fladd,w
  6077  0E18  00CE               	movwf	___fladd@a+2
  6078  0E19                     l2464:
  6079  0E19  084B               	movf	___fladd@b+3,w
  6080  0E1A  00D0               	movwf	??___fladd
  6081  0E1B  0850               	movf	??___fladd,w
  6082  0E1C  00DB               	movwf	___fladd@grs
  6083  0E1D                     l2466:
  6084  0E1D  084F               	movf	___fladd@a+3,w
  6085  0E1E  00D0               	movwf	??___fladd
  6086  0E1F  0850               	movf	??___fladd,w
  6087  0E20  00CB               	movwf	___fladd@b+3
  6088  0E21                     l2468:
  6089  0E21  085B               	movf	___fladd@grs,w
  6090  0E22  00D0               	movwf	??___fladd
  6091  0E23  0850               	movf	??___fladd,w
  6092  0E24  00CF               	movwf	___fladd@a+3
  6093  0E25                     l2470:
  6094  0E25  01DB               	clrf	___fladd@grs
  6095  0E26                     l2472:
  6096  0E26  0859               	movf	___fladd@aexp,w
  6097  0E27  00D0               	movwf	??___fladd
  6098  0E28  01D1               	clrf	??___fladd+1
  6099  0E29  0851               	movf	??___fladd+1,w
  6100  0E2A  00D3               	movwf	??___fladd+3
  6101  0E2B  085A               	movf	___fladd@bexp,w
  6102  0E2C  0250               	subwf	??___fladd,w
  6103  0E2D  00D2               	movwf	??___fladd+2
  6104  0E2E  1C03               	skipc
  6105  0E2F  03D3               	decf	??___fladd+3,f
  6106  0E30  0853               	movf	??___fladd+3,w
  6107  0E31  3A80               	xorlw	128
  6108  0E32  00FF               	movwf	btemp+1
  6109  0E33  3080               	movlw	128
  6110  0E34  027F               	subwf	btemp+1,w
  6111  0E35  1D03               	skipz
  6112  0E36  2E39               	goto	u2515
  6113  0E37  301A               	movlw	26
  6114  0E38  0252               	subwf	??___fladd+2,w
  6115  0E39                     u2515:
  6116  0E39  1C03               	skipc
  6117  0E3A  2E3C               	goto	u2511
  6118  0E3B  2E3D               	goto	u2510
  6119  0E3C                     u2511:
  6120  0E3C  2E7A               	goto	l2488
  6121  0E3D                     u2510:
  6122  0E3D                     l2474:
  6123  0E3D  1283               	bcf	3,5	;RP0=0, select bank0
  6124  0E3E  1303               	bcf	3,6	;RP1=0, select bank0
  6125  0E3F  084B               	movf	___fladd@b+3,w
  6126  0E40  044A               	iorwf	___fladd@b+2,w
  6127  0E41  0449               	iorwf	___fladd@b+1,w
  6128  0E42  0448               	iorwf	___fladd@b,w
  6129  0E43  1D03               	skipz
  6130  0E44  2E46               	goto	u2521
  6131  0E45  2E48               	goto	u2520
  6132  0E46                     u2521:
  6133  0E46  3001               	movlw	1
  6134  0E47  2E49               	goto	u2530
  6135  0E48                     u2520:
  6136  0E48  3000               	movlw	0
  6137  0E49                     u2530:
  6138  0E49  00D0               	movwf	??___fladd
  6139  0E4A  0850               	movf	??___fladd,w
  6140  0E4B  00DB               	movwf	___fladd@grs
  6141  0E4C  3000               	movlw	0
  6142  0E4D  00CB               	movwf	___fladd@b+3
  6143  0E4E  3000               	movlw	0
  6144  0E4F  00CA               	movwf	___fladd@b+2
  6145  0E50  3000               	movlw	0
  6146  0E51  00C9               	movwf	___fladd@b+1
  6147  0E52  3000               	movlw	0
  6148  0E53  00C8               	movwf	___fladd@b
  6149  0E54  0859               	movf	___fladd@aexp,w
  6150  0E55  00D0               	movwf	??___fladd
  6151  0E56  0850               	movf	??___fladd,w
  6152  0E57  00DA               	movwf	___fladd@bexp
  6153  0E58  2E82               	goto	l671
  6154  0E59                     l673:
  6155  0E59  1C5B               	btfss	___fladd@grs,0
  6156  0E5A  2E5C               	goto	u2541
  6157  0E5B  2E5D               	goto	u2540
  6158  0E5C                     u2541:
  6159  0E5C  2E66               	goto	l2478
  6160  0E5D                     u2540:
  6161  0E5D                     l2476:
  6162  0E5D  085B               	movf	___fladd@grs,w
  6163  0E5E  00D0               	movwf	??___fladd
  6164  0E5F  1003               	clrc
  6165  0E60  0C50               	rrf	??___fladd,w
  6166  0E61  3801               	iorlw	1
  6167  0E62  00D1               	movwf	??___fladd+1
  6168  0E63  0851               	movf	??___fladd+1,w
  6169  0E64  00DB               	movwf	___fladd@grs
  6170  0E65  2E68               	goto	l2480
  6171  0E66                     l2478:
  6172  0E66  1003               	clrc
  6173  0E67  0CDB               	rrf	___fladd@grs,f
  6174  0E68                     l2480:
  6175  0E68  1C48               	btfss	___fladd@b,0
  6176  0E69  2E6B               	goto	u2551
  6177  0E6A  2E6C               	goto	u2550
  6178  0E6B                     u2551:
  6179  0E6B  2E6D               	goto	l2484
  6180  0E6C                     u2550:
  6181  0E6C                     l2482:
  6182  0E6C  17DB               	bsf	___fladd@grs,7
  6183  0E6D                     l2484:
  6184  0E6D  3001               	movlw	1
  6185  0E6E  00D0               	movwf	??___fladd
  6186  0E6F                     u2565:
  6187  0E6F  0D4B               	rlf	___fladd@b+3,w
  6188  0E70  0CCB               	rrf	___fladd@b+3,f
  6189  0E71  0CCA               	rrf	___fladd@b+2,f
  6190  0E72  0CC9               	rrf	___fladd@b+1,f
  6191  0E73  0CC8               	rrf	___fladd@b,f
  6192  0E74  0BD0               	decfsz	??___fladd& (0+127),f
  6193  0E75  2E6F               	goto	u2565
  6194  0E76                     l2486:
  6195  0E76  3001               	movlw	1
  6196  0E77  00D0               	movwf	??___fladd
  6197  0E78  0850               	movf	??___fladd,w
  6198  0E79  07DA               	addwf	___fladd@bexp,f
  6199  0E7A                     l2488:
  6200  0E7A  1283               	bcf	3,5	;RP0=0, select bank0
  6201  0E7B  1303               	bcf	3,6	;RP1=0, select bank0
  6202  0E7C  0859               	movf	___fladd@aexp,w
  6203  0E7D  025A               	subwf	___fladd@bexp,w
  6204  0E7E  1C03               	skipc
  6205  0E7F  2E81               	goto	u2571
  6206  0E80  2E82               	goto	u2570
  6207  0E81                     u2571:
  6208  0E81  2E59               	goto	l673
  6209  0E82                     u2570:
  6210  0E82                     l671:
  6211  0E82  1B58               	btfsc	___fladd@signs,6
  6212  0E83  2E85               	goto	u2581
  6213  0E84  2E86               	goto	u2580
  6214  0E85                     u2581:
  6215  0E85  2ED1               	goto	l2514
  6216  0E86                     u2580:
  6217  0E86                     l2490:
  6218  0E86  085A               	movf	___fladd@bexp,w
  6219  0E87  1D03               	btfss	3,2
  6220  0E88  2E8A               	goto	u2591
  6221  0E89  2E8B               	goto	u2590
  6222  0E8A                     u2591:
  6223  0E8A  2E94               	goto	l2496
  6224  0E8B                     u2590:
  6225  0E8B                     l2492:
  6226  0E8B  3000               	movlw	0
  6227  0E8C  00CB               	movwf	?___fladd+3
  6228  0E8D  3000               	movlw	0
  6229  0E8E  00CA               	movwf	?___fladd+2
  6230  0E8F  3000               	movlw	0
  6231  0E90  00C9               	movwf	?___fladd+1
  6232  0E91  3000               	movlw	0
  6233  0E92  00C8               	movwf	?___fladd
  6234  0E93  2FFF               	goto	l680
  6235  0E94                     l2496:
  6236  0E94  084C               	movf	___fladd@a,w
  6237  0E95  07C8               	addwf	___fladd@b,f
  6238  0E96  084D               	movf	___fladd@a+1,w
  6239  0E97  1103               	clrz
  6240  0E98  1803               	skipnc
  6241  0E99  3E01               	addlw	1
  6242  0E9A  1903               	skipnz
  6243  0E9B  2E9D               	goto	u2601
  6244  0E9C  07C9               	addwf	___fladd@b+1,f
  6245  0E9D                     u2601:
  6246  0E9D  084E               	movf	___fladd@a+2,w
  6247  0E9E  1103               	clrz
  6248  0E9F  1803               	skipnc
  6249  0EA0  3E01               	addlw	1
  6250  0EA1  1903               	skipnz
  6251  0EA2  2EA4               	goto	u2602
  6252  0EA3  07CA               	addwf	___fladd@b+2,f
  6253  0EA4                     u2602:
  6254  0EA4  084F               	movf	___fladd@a+3,w
  6255  0EA5  1103               	clrz
  6256  0EA6  1803               	skipnc
  6257  0EA7  3E01               	addlw	1
  6258  0EA8  1903               	skipnz
  6259  0EA9  2EAB               	goto	u2603
  6260  0EAA  07CB               	addwf	___fladd@b+3,f
  6261  0EAB                     u2603:
  6262  0EAB                     l2498:
  6263  0EAB  1C4B               	btfss	___fladd@b+3,0
  6264  0EAC  2EAE               	goto	u2611
  6265  0EAD  2EAF               	goto	u2610
  6266  0EAE                     u2611:
  6267  0EAE  2F85               	goto	l2548
  6268  0EAF                     u2610:
  6269  0EAF                     l2500:
  6270  0EAF  1C5B               	btfss	___fladd@grs,0
  6271  0EB0  2EB2               	goto	u2621
  6272  0EB1  2EB3               	goto	u2620
  6273  0EB2                     u2621:
  6274  0EB2  2EBC               	goto	l2504
  6275  0EB3                     u2620:
  6276  0EB3                     l2502:
  6277  0EB3  085B               	movf	___fladd@grs,w
  6278  0EB4  00D0               	movwf	??___fladd
  6279  0EB5  1003               	clrc
  6280  0EB6  0C50               	rrf	??___fladd,w
  6281  0EB7  3801               	iorlw	1
  6282  0EB8  00D1               	movwf	??___fladd+1
  6283  0EB9  0851               	movf	??___fladd+1,w
  6284  0EBA  00DB               	movwf	___fladd@grs
  6285  0EBB  2EBE               	goto	l2506
  6286  0EBC                     l2504:
  6287  0EBC  1003               	clrc
  6288  0EBD  0CDB               	rrf	___fladd@grs,f
  6289  0EBE                     l2506:
  6290  0EBE  1C48               	btfss	___fladd@b,0
  6291  0EBF  2EC1               	goto	u2631
  6292  0EC0  2EC2               	goto	u2630
  6293  0EC1                     u2631:
  6294  0EC1  2EC3               	goto	l2510
  6295  0EC2                     u2630:
  6296  0EC2                     l2508:
  6297  0EC2  17DB               	bsf	___fladd@grs,7
  6298  0EC3                     l2510:
  6299  0EC3  3001               	movlw	1
  6300  0EC4  00D0               	movwf	??___fladd
  6301  0EC5                     u2645:
  6302  0EC5  0D4B               	rlf	___fladd@b+3,w
  6303  0EC6  0CCB               	rrf	___fladd@b+3,f
  6304  0EC7  0CCA               	rrf	___fladd@b+2,f
  6305  0EC8  0CC9               	rrf	___fladd@b+1,f
  6306  0EC9  0CC8               	rrf	___fladd@b,f
  6307  0ECA  0BD0               	decfsz	??___fladd& (0+127),f
  6308  0ECB  2EC5               	goto	u2645
  6309  0ECC                     l2512:
  6310  0ECC  3001               	movlw	1
  6311  0ECD  00D0               	movwf	??___fladd
  6312  0ECE  0850               	movf	??___fladd,w
  6313  0ECF  07DA               	addwf	___fladd@bexp,f
  6314  0ED0  2F85               	goto	l2548
  6315  0ED1                     l2514:
  6316  0ED1  084B               	movf	___fladd@b+3,w
  6317  0ED2  3A80               	xorlw	128
  6318  0ED3  00FF               	movwf	btemp+1
  6319  0ED4  084F               	movf	___fladd@a+3,w
  6320  0ED5  3A80               	xorlw	128
  6321  0ED6  027F               	subwf	btemp+1,w
  6322  0ED7  1D03               	skipz
  6323  0ED8  2EE3               	goto	u2653
  6324  0ED9  084E               	movf	___fladd@a+2,w
  6325  0EDA  024A               	subwf	___fladd@b+2,w
  6326  0EDB  1D03               	skipz
  6327  0EDC  2EE3               	goto	u2653
  6328  0EDD  084D               	movf	___fladd@a+1,w
  6329  0EDE  0249               	subwf	___fladd@b+1,w
  6330  0EDF  1D03               	skipz
  6331  0EE0  2EE3               	goto	u2653
  6332  0EE1  084C               	movf	___fladd@a,w
  6333  0EE2  0248               	subwf	___fladd@b,w
  6334  0EE3                     u2653:
  6335  0EE3  1803               	skipnc
  6336  0EE4  2EE6               	goto	u2651
  6337  0EE5  2EE7               	goto	u2650
  6338  0EE6                     u2651:
  6339  0EE6  2F3F               	goto	l2524
  6340  0EE7                     u2650:
  6341  0EE7                     l2516:
  6342  0EE7  30FF               	movlw	255
  6343  0EE8  00D0               	movwf	??___fladd
  6344  0EE9  30FF               	movlw	255
  6345  0EEA  00D1               	movwf	??___fladd+1
  6346  0EEB  30FF               	movlw	255
  6347  0EEC  00D2               	movwf	??___fladd+2
  6348  0EED  30FF               	movlw	255
  6349  0EEE  00D3               	movwf	??___fladd+3
  6350  0EEF  084C               	movf	___fladd@a,w
  6351  0EF0  00D4               	movwf	??___fladd+4
  6352  0EF1  084D               	movf	___fladd@a+1,w
  6353  0EF2  00D5               	movwf	??___fladd+5
  6354  0EF3  084E               	movf	___fladd@a+2,w
  6355  0EF4  00D6               	movwf	??___fladd+6
  6356  0EF5  084F               	movf	___fladd@a+3,w
  6357  0EF6  00D7               	movwf	??___fladd+7
  6358  0EF7  0848               	movf	___fladd@b,w
  6359  0EF8  02D4               	subwf	??___fladd+4,f
  6360  0EF9  0849               	movf	___fladd@b+1,w
  6361  0EFA  1C03               	skipc
  6362  0EFB  0F49               	incfsz	___fladd@b+1,w
  6363  0EFC  2EFE               	goto	u2661
  6364  0EFD  2EFF               	goto	u2662
  6365  0EFE                     u2661:
  6366  0EFE  02D5               	subwf	??___fladd+5,f
  6367  0EFF                     u2662:
  6368  0EFF  084A               	movf	___fladd@b+2,w
  6369  0F00  1C03               	skipc
  6370  0F01  0F4A               	incfsz	___fladd@b+2,w
  6371  0F02  2F04               	goto	u2663
  6372  0F03  2F05               	goto	u2664
  6373  0F04                     u2663:
  6374  0F04  02D6               	subwf	??___fladd+6,f
  6375  0F05                     u2664:
  6376  0F05  084B               	movf	___fladd@b+3,w
  6377  0F06  1C03               	skipc
  6378  0F07  0F4B               	incfsz	___fladd@b+3,w
  6379  0F08  2F0A               	goto	u2665
  6380  0F09  2F0B               	goto	u2666
  6381  0F0A                     u2665:
  6382  0F0A  02D7               	subwf	??___fladd+7,f
  6383  0F0B                     u2666:
  6384  0F0B  0854               	movf	??___fladd+4,w
  6385  0F0C  07D0               	addwf	??___fladd,f
  6386  0F0D  0855               	movf	??___fladd+5,w
  6387  0F0E  1803               	skipnc
  6388  0F0F  0F55               	incfsz	??___fladd+5,w
  6389  0F10  2F12               	goto	u2670
  6390  0F11  2F13               	goto	u2671
  6391  0F12                     u2670:
  6392  0F12  07D1               	addwf	??___fladd+1,f
  6393  0F13                     u2671:
  6394  0F13  0856               	movf	??___fladd+6,w
  6395  0F14  1803               	skipnc
  6396  0F15  0F56               	incfsz	??___fladd+6,w
  6397  0F16  2F18               	goto	u2672
  6398  0F17  2F19               	goto	u2673
  6399  0F18                     u2672:
  6400  0F18  07D2               	addwf	??___fladd+2,f
  6401  0F19                     u2673:
  6402  0F19  0857               	movf	??___fladd+7,w
  6403  0F1A  1803               	skipnc
  6404  0F1B  0A57               	incf	??___fladd+7,w
  6405  0F1C  07D3               	addwf	??___fladd+3,f
  6406  0F1D  0853               	movf	??___fladd+3,w
  6407  0F1E  00CB               	movwf	___fladd@b+3
  6408  0F1F  0852               	movf	??___fladd+2,w
  6409  0F20  00CA               	movwf	___fladd@b+2
  6410  0F21  0851               	movf	??___fladd+1,w
  6411  0F22  00C9               	movwf	___fladd@b+1
  6412  0F23  0850               	movf	??___fladd,w
  6413  0F24  00C8               	movwf	___fladd@b
  6414  0F25                     l2518:
  6415  0F25  3080               	movlw	128
  6416  0F26  00D0               	movwf	??___fladd
  6417  0F27  0850               	movf	??___fladd,w
  6418  0F28  06D8               	xorwf	___fladd@signs,f
  6419  0F29  09DB               	comf	___fladd@grs,f
  6420  0F2A  0ADB               	incf	___fladd@grs,f
  6421  0F2B                     l2520:
  6422  0F2B  085B               	movf	___fladd@grs,w
  6423  0F2C  1D03               	btfss	3,2
  6424  0F2D  2F2F               	goto	u2681
  6425  0F2E  2F30               	goto	u2680
  6426  0F2F                     u2681:
  6427  0F2F  2F4D               	goto	l688
  6428  0F30                     u2680:
  6429  0F30                     l2522:
  6430  0F30  3001               	movlw	1
  6431  0F31  07C8               	addwf	___fladd@b,f
  6432  0F32  3000               	movlw	0
  6433  0F33  1803               	skipnc
  6434  0F34  3001               	movlw	1
  6435  0F35  07C9               	addwf	___fladd@b+1,f
  6436  0F36  3000               	movlw	0
  6437  0F37  1803               	skipnc
  6438  0F38  3001               	movlw	1
  6439  0F39  07CA               	addwf	___fladd@b+2,f
  6440  0F3A  3000               	movlw	0
  6441  0F3B  1803               	skipnc
  6442  0F3C  3001               	movlw	1
  6443  0F3D  07CB               	addwf	___fladd@b+3,f
  6444  0F3E  2F4D               	goto	l688
  6445  0F3F                     l2524:
  6446  0F3F  084C               	movf	___fladd@a,w
  6447  0F40  02C8               	subwf	___fladd@b,f
  6448  0F41  084D               	movf	___fladd@a+1,w
  6449  0F42  1C03               	skipc
  6450  0F43  0F4D               	incfsz	___fladd@a+1,w
  6451  0F44  02C9               	subwf	___fladd@b+1,f
  6452  0F45  084E               	movf	___fladd@a+2,w
  6453  0F46  1C03               	skipc
  6454  0F47  0F4E               	incfsz	___fladd@a+2,w
  6455  0F48  02CA               	subwf	___fladd@b+2,f
  6456  0F49  084F               	movf	___fladd@a+3,w
  6457  0F4A  1C03               	skipc
  6458  0F4B  0F4F               	incfsz	___fladd@a+3,w
  6459  0F4C  02CB               	subwf	___fladd@b+3,f
  6460  0F4D                     l688:
  6461  0F4D  084B               	movf	___fladd@b+3,w
  6462  0F4E  044A               	iorwf	___fladd@b+2,w
  6463  0F4F  0449               	iorwf	___fladd@b+1,w
  6464  0F50  0448               	iorwf	___fladd@b,w
  6465  0F51  1D03               	skipz
  6466  0F52  2F54               	goto	u2691
  6467  0F53  2F55               	goto	u2690
  6468  0F54                     u2691:
  6469  0F54  2F81               	goto	l2546
  6470  0F55                     u2690:
  6471  0F55                     l2526:
  6472  0F55  085B               	movf	___fladd@grs,w
  6473  0F56  1D03               	btfss	3,2
  6474  0F57  2F59               	goto	u2701
  6475  0F58  2F5A               	goto	u2700
  6476  0F59                     u2701:
  6477  0F59  2F81               	goto	l2546
  6478  0F5A                     u2700:
  6479  0F5A                     l2528:
  6480  0F5A  3000               	movlw	0
  6481  0F5B  00CB               	movwf	?___fladd+3
  6482  0F5C  3000               	movlw	0
  6483  0F5D  00CA               	movwf	?___fladd+2
  6484  0F5E  3000               	movlw	0
  6485  0F5F  00C9               	movwf	?___fladd+1
  6486  0F60  3000               	movlw	0
  6487  0F61  00C8               	movwf	?___fladd
  6488  0F62  2FFF               	goto	l680
  6489  0F63                     l2532:
  6490  0F63  3001               	movlw	1
  6491  0F64  00D0               	movwf	??___fladd
  6492  0F65                     u2715:
  6493  0F65  1003               	clrc
  6494  0F66  0DC8               	rlf	___fladd@b,f
  6495  0F67  0DC9               	rlf	___fladd@b+1,f
  6496  0F68  0DCA               	rlf	___fladd@b+2,f
  6497  0F69  0DCB               	rlf	___fladd@b+3,f
  6498  0F6A  0BD0               	decfsz	??___fladd,f
  6499  0F6B  2F65               	goto	u2715
  6500  0F6C                     l2534:
  6501  0F6C  1FDB               	btfss	___fladd@grs,7
  6502  0F6D  2F6F               	goto	u2721
  6503  0F6E  2F70               	goto	u2720
  6504  0F6F                     u2721:
  6505  0F6F  2F71               	goto	l692
  6506  0F70                     u2720:
  6507  0F70                     l2536:
  6508  0F70  1448               	bsf	___fladd@b,0
  6509  0F71                     l692:
  6510  0F71  1C5B               	btfss	___fladd@grs,0
  6511  0F72  2F74               	goto	u2731
  6512  0F73  2F75               	goto	u2730
  6513  0F74                     u2731:
  6514  0F74  2F78               	goto	l2540
  6515  0F75                     u2730:
  6516  0F75                     l2538:
  6517  0F75  1403               	setc
  6518  0F76  0DDB               	rlf	___fladd@grs,f
  6519  0F77  2F7A               	goto	l2542
  6520  0F78                     l2540:
  6521  0F78  1003               	clrc
  6522  0F79  0DDB               	rlf	___fladd@grs,f
  6523  0F7A                     l2542:
  6524  0F7A  085A               	movf	___fladd@bexp,w
  6525  0F7B  1903               	btfsc	3,2
  6526  0F7C  2F7E               	goto	u2741
  6527  0F7D  2F7F               	goto	u2740
  6528  0F7E                     u2741:
  6529  0F7E  2F81               	goto	l2546
  6530  0F7F                     u2740:
  6531  0F7F                     l2544:
  6532  0F7F  3001               	movlw	1
  6533  0F80  02DA               	subwf	___fladd@bexp,f
  6534  0F81                     l2546:
  6535  0F81  1FCA               	btfss	___fladd@b+2,7
  6536  0F82  2F84               	goto	u2751
  6537  0F83  2F85               	goto	u2750
  6538  0F84                     u2751:
  6539  0F84  2F63               	goto	l2532
  6540  0F85                     u2750:
  6541  0F85                     l2548:
  6542  0F85  01D9               	clrf	___fladd@aexp
  6543  0F86                     l2550:
  6544  0F86  1FDB               	btfss	___fladd@grs,7
  6545  0F87  2F89               	goto	u2761
  6546  0F88  2F8A               	goto	u2760
  6547  0F89                     u2761:
  6548  0F89  2F98               	goto	l2558
  6549  0F8A                     u2760:
  6550  0F8A                     l2552:
  6551  0F8A  085B               	movf	___fladd@grs,w
  6552  0F8B  397F               	andlw	127
  6553  0F8C  1903               	btfsc	3,2
  6554  0F8D  2F8F               	goto	u2771
  6555  0F8E  2F90               	goto	u2770
  6556  0F8F                     u2771:
  6557  0F8F  2F93               	goto	l698
  6558  0F90                     u2770:
  6559  0F90                     l2554:
  6560  0F90  01D9               	clrf	___fladd@aexp
  6561  0F91  0AD9               	incf	___fladd@aexp,f
  6562  0F92  2F98               	goto	l2558
  6563  0F93                     l698:
  6564  0F93  1C48               	btfss	___fladd@b,0
  6565  0F94  2F96               	goto	u2781
  6566  0F95  2F97               	goto	u2780
  6567  0F96                     u2781:
  6568  0F96  2F98               	goto	l2558
  6569  0F97                     u2780:
  6570  0F97  2F90               	goto	l2554
  6571  0F98                     l2558:
  6572  0F98  0859               	movf	___fladd@aexp,w
  6573  0F99  1903               	btfsc	3,2
  6574  0F9A  2F9C               	goto	u2791
  6575  0F9B  2F9D               	goto	u2790
  6576  0F9C                     u2791:
  6577  0F9C  2FD1               	goto	l701
  6578  0F9D                     u2790:
  6579  0F9D                     l2560:
  6580  0F9D  3001               	movlw	1
  6581  0F9E  07C8               	addwf	___fladd@b,f
  6582  0F9F  3000               	movlw	0
  6583  0FA0  1803               	skipnc
  6584  0FA1  3001               	movlw	1
  6585  0FA2  07C9               	addwf	___fladd@b+1,f
  6586  0FA3  3000               	movlw	0
  6587  0FA4  1803               	skipnc
  6588  0FA5  3001               	movlw	1
  6589  0FA6  07CA               	addwf	___fladd@b+2,f
  6590  0FA7  3000               	movlw	0
  6591  0FA8  1803               	skipnc
  6592  0FA9  3001               	movlw	1
  6593  0FAA  07CB               	addwf	___fladd@b+3,f
  6594  0FAB                     l2562:
  6595  0FAB  1C4B               	btfss	___fladd@b+3,0
  6596  0FAC  2FAE               	goto	u2801
  6597  0FAD  2FAF               	goto	u2800
  6598  0FAE                     u2801:
  6599  0FAE  2FD1               	goto	l701
  6600  0FAF                     u2800:
  6601  0FAF                     l2564:
  6602  0FAF  0848               	movf	___fladd@b,w
  6603  0FB0  00D0               	movwf	??___fladd
  6604  0FB1  0849               	movf	___fladd@b+1,w
  6605  0FB2  00D1               	movwf	??___fladd+1
  6606  0FB3  084A               	movf	___fladd@b+2,w
  6607  0FB4  00D2               	movwf	??___fladd+2
  6608  0FB5  084B               	movf	___fladd@b+3,w
  6609  0FB6  00D3               	movwf	??___fladd+3
  6610  0FB7  3001               	movlw	1
  6611  0FB8  00D4               	movwf	??___fladd+4
  6612  0FB9                     u2815:
  6613  0FB9  0D53               	rlf	??___fladd+3,w
  6614  0FBA  0CD3               	rrf	??___fladd+3,f
  6615  0FBB  0CD2               	rrf	??___fladd+2,f
  6616  0FBC  0CD1               	rrf	??___fladd+1,f
  6617  0FBD  0CD0               	rrf	??___fladd,f
  6618  0FBE                     u2810:
  6619  0FBE  0BD4               	decfsz	??___fladd+4,f
  6620  0FBF  2FB9               	goto	u2815
  6621  0FC0  0853               	movf	??___fladd+3,w
  6622  0FC1  00CB               	movwf	___fladd@b+3
  6623  0FC2  0852               	movf	??___fladd+2,w
  6624  0FC3  00CA               	movwf	___fladd@b+2
  6625  0FC4  0851               	movf	??___fladd+1,w
  6626  0FC5  00C9               	movwf	___fladd@b+1
  6627  0FC6  0850               	movf	??___fladd,w
  6628  0FC7  00C8               	movwf	___fladd@b
  6629  0FC8  0A5A               	incf	___fladd@bexp,w
  6630  0FC9  1903               	btfsc	3,2
  6631  0FCA  2FCC               	goto	u2821
  6632  0FCB  2FCD               	goto	u2820
  6633  0FCC                     u2821:
  6634  0FCC  2FD1               	goto	l701
  6635  0FCD                     u2820:
  6636  0FCD                     l2566:
  6637  0FCD  3001               	movlw	1
  6638  0FCE  00D0               	movwf	??___fladd
  6639  0FCF  0850               	movf	??___fladd,w
  6640  0FD0  07DA               	addwf	___fladd@bexp,f
  6641  0FD1                     l701:
  6642  0FD1  0A5A               	incf	___fladd@bexp,w
  6643  0FD2  1903               	btfsc	3,2
  6644  0FD3  2FD5               	goto	u2831
  6645  0FD4  2FD6               	goto	u2830
  6646  0FD5                     u2831:
  6647  0FD5  2FDB               	goto	l2570
  6648  0FD6                     u2830:
  6649  0FD6                     l2568:
  6650  0FD6  085A               	movf	___fladd@bexp,w
  6651  0FD7  1D03               	btfss	3,2
  6652  0FD8  2FDA               	goto	u2841
  6653  0FD9  2FDB               	goto	u2840
  6654  0FDA                     u2841:
  6655  0FDA  2FE9               	goto	l2576
  6656  0FDB                     u2840:
  6657  0FDB                     l2570:
  6658  0FDB  3000               	movlw	0
  6659  0FDC  00CB               	movwf	___fladd@b+3
  6660  0FDD  3000               	movlw	0
  6661  0FDE  00CA               	movwf	___fladd@b+2
  6662  0FDF  3000               	movlw	0
  6663  0FE0  00C9               	movwf	___fladd@b+1
  6664  0FE1  3000               	movlw	0
  6665  0FE2  00C8               	movwf	___fladd@b
  6666  0FE3                     l2572:
  6667  0FE3  085A               	movf	___fladd@bexp,w
  6668  0FE4  1D03               	btfss	3,2
  6669  0FE5  2FE7               	goto	u2851
  6670  0FE6  2FE8               	goto	u2850
  6671  0FE7                     u2851:
  6672  0FE7  2FE9               	goto	l2576
  6673  0FE8                     u2850:
  6674  0FE8                     l2574:
  6675  0FE8  01D8               	clrf	___fladd@signs
  6676  0FE9                     l2576:
  6677  0FE9  1C5A               	btfss	___fladd@bexp,0
  6678  0FEA  2FEC               	goto	u2861
  6679  0FEB  2FED               	goto	u2860
  6680  0FEC                     u2861:
  6681  0FEC  2FEF               	goto	l2580
  6682  0FED                     u2860:
  6683  0FED                     l2578:
  6684  0FED  17CA               	bsf	___fladd@b+2,7
  6685  0FEE  2FF3               	goto	l709
  6686  0FEF                     l2580:
  6687  0FEF  307F               	movlw	127
  6688  0FF0  00D0               	movwf	??___fladd
  6689  0FF1  0850               	movf	??___fladd,w
  6690  0FF2  05CA               	andwf	___fladd@b+2,f
  6691  0FF3                     l709:
  6692  0FF3  085A               	movf	___fladd@bexp,w
  6693  0FF4  00D0               	movwf	??___fladd
  6694  0FF5  1003               	clrc
  6695  0FF6  0C50               	rrf	??___fladd,w
  6696  0FF7  00D1               	movwf	??___fladd+1
  6697  0FF8  0851               	movf	??___fladd+1,w
  6698  0FF9  00CB               	movwf	___fladd@b+3
  6699  0FFA                     l2582:
  6700  0FFA  1FD8               	btfss	___fladd@signs,7
  6701  0FFB  2FFD               	goto	u2871
  6702  0FFC  2FFE               	goto	u2870
  6703  0FFD                     u2871:
  6704  0FFD  2FFF               	goto	l710
  6705  0FFE                     u2870:
  6706  0FFE                     l2584:
  6707  0FFE  17CB               	bsf	___fladd@b+3,7
  6708  0FFF                     l710:
  6709  0FFF                     l680:
  6710  0FFF  0008               	return
  6711  1000                     __end_of___fladd:
  6712                           
  6713                           	psect	text19
  6714  09F7                     __ptext19:	
  6715 ;; *************** function _Temp_Conversion *****************
  6716 ;; Defined at:
  6717 ;;		line 87 in file "D:/UVG-IngenieriaElectronica/5to-Semestre/Electronica-Digital-2/mini-02/master.X/_MPU6050.c"
  6718 ;; Parameters:    Size  Location     Type
  6719 ;;  _temp           2   16[BANK0 ] int 
  6720 ;; Auto vars:     Size  Location     Type
  6721 ;;  _temp_tenths    2   30[BANK0 ] int 
  6722 ;;  _write_tens     2   28[BANK0 ] int 
  6723 ;;  _write_units    2   26[BANK0 ] int 
  6724 ;;  _write_tenth    2   24[BANK0 ] int 
  6725 ;;  _temp_units     2   22[BANK0 ] int 
  6726 ;;  _temp_tens      2   20[BANK0 ] int 
  6727 ;; Return value:  Size  Location     Type
  6728 ;;                  1    wreg      void 
  6729 ;; Registers used:
  6730 ;;		wreg, status,2, status,0, pclath, cstack
  6731 ;; Tracked objects:
  6732 ;;		On entry : 0/0
  6733 ;;		On exit  : 0/0
  6734 ;;		Unchanged: 0/0
  6735 ;; Data sizes:     COMMON   BANK0   BANK1   BANK3   BANK2
  6736 ;;      Params:         0       2       0       0       0
  6737 ;;      Locals:         0      12       0       0       0
  6738 ;;      Temps:          0       2       0       0       0
  6739 ;;      Totals:         0      16       0       0       0
  6740 ;;Total ram usage:       16 bytes
  6741 ;; Hardware stack levels used: 1
  6742 ;; Hardware stack levels required when called: 5
  6743 ;; This function calls:
  6744 ;;		___awdiv
  6745 ;;		___awmod
  6746 ;;		___wmul
  6747 ;;		_txfunc
  6748 ;;		_writeChar
  6749 ;; This function is called by:
  6750 ;;		_MPU6050_Read
  6751 ;; This function uses a non-reentrant model
  6752 ;;
  6753                           
  6754                           
  6755                           ;psect for function _Temp_Conversion
  6756  09F7                     _Temp_Conversion:
  6757  09F7                     l2334:	
  6758                           ;incstack = 0
  6759                           ; Regs used in _Temp_Conversion: [wreg+status,2+status,0+pclath+cstack]
  6760                           
  6761                           
  6762                           ;D:/UVG-IngenieriaElectronica/5to-Semestre/Electronica-Digital-2/mini-02/master.X/_MPU60
      +                          50.c: 88:     int _temp_tenths, _temp_units, _temp_tens;;D:/UVG-IngenieriaElectronica/5t
      +                          o-Semestre/Electronica-Digital-2/mini-02/master.X/_MPU6050.c: 89:     int _write_tenths,
      +                           _write_units, _write_tens;;D:/UVG-IngenieriaElectronica/5to-Semestre/Electronica-Digita
      +                          l-2/mini-02/master.X/_MPU6050.c: 90:     _temp_tenths = (_temp%10);
  6763  09F7  300A               	movlw	10
  6764  09F8  1283               	bcf	3,5	;RP0=0, select bank0
  6765  09F9  1303               	bcf	3,6	;RP1=0, select bank0
  6766  09FA  00A0               	movwf	___awmod@divisor
  6767  09FB  3000               	movlw	0
  6768  09FC  00A1               	movwf	___awmod@divisor+1
  6769  09FD  0831               	movf	Temp_Conversion@_temp+1,w
  6770  09FE  00A3               	movwf	___awmod@dividend+1
  6771  09FF  0830               	movf	Temp_Conversion@_temp,w
  6772  0A00  00A2               	movwf	___awmod@dividend
  6773  0A01  120A  158A  2002  120A  158A  	fcall	___awmod
  6774  0A06  1283               	bcf	3,5	;RP0=0, select bank0
  6775  0A07  1303               	bcf	3,6	;RP1=0, select bank0
  6776  0A08  0821               	movf	?___awmod+1,w
  6777  0A09  00BF               	movwf	Temp_Conversion@_temp_tenths+1
  6778  0A0A  0820               	movf	?___awmod,w
  6779  0A0B  00BE               	movwf	Temp_Conversion@_temp_tenths
  6780                           
  6781                           ;D:/UVG-IngenieriaElectronica/5to-Semestre/Electronica-Digital-2/mini-02/master.X/_MPU60
      +                          50.c: 91:     _temp_units = (_temp%100 - _temp_tenths)/10;
  6782  0A0C  300A               	movlw	10
  6783  0A0D  00A7               	movwf	___awdiv@divisor
  6784  0A0E  3000               	movlw	0
  6785  0A0F  00A8               	movwf	___awdiv@divisor+1
  6786  0A10  3064               	movlw	100
  6787  0A11  00A0               	movwf	___awmod@divisor
  6788  0A12  3000               	movlw	0
  6789  0A13  00A1               	movwf	___awmod@divisor+1
  6790  0A14  0831               	movf	Temp_Conversion@_temp+1,w
  6791  0A15  00A3               	movwf	___awmod@dividend+1
  6792  0A16  0830               	movf	Temp_Conversion@_temp,w
  6793  0A17  00A2               	movwf	___awmod@dividend
  6794  0A18  120A  158A  2002  120A  158A  	fcall	___awmod
  6795  0A1D  1283               	bcf	3,5	;RP0=0, select bank0
  6796  0A1E  1303               	bcf	3,6	;RP1=0, select bank0
  6797  0A1F  083E               	movf	Temp_Conversion@_temp_tenths,w
  6798  0A20  0220               	subwf	?___awmod,w
  6799  0A21  00A9               	movwf	___awdiv@dividend
  6800  0A22  083F               	movf	Temp_Conversion@_temp_tenths+1,w
  6801  0A23  1C03               	skipc
  6802  0A24  0A3F               	incf	Temp_Conversion@_temp_tenths+1,w
  6803  0A25  0221               	subwf	?___awmod+1,w
  6804  0A26  00AA               	movwf	___awdiv@dividend+1
  6805  0A27  120A  158A  218E  120A  158A  	fcall	___awdiv
  6806  0A2C  1283               	bcf	3,5	;RP0=0, select bank0
  6807  0A2D  1303               	bcf	3,6	;RP1=0, select bank0
  6808  0A2E  0828               	movf	?___awdiv+1,w
  6809  0A2F  00B7               	movwf	Temp_Conversion@_temp_units+1
  6810  0A30  0827               	movf	?___awdiv,w
  6811  0A31  00B6               	movwf	Temp_Conversion@_temp_units
  6812                           
  6813                           ;D:/UVG-IngenieriaElectronica/5to-Semestre/Electronica-Digital-2/mini-02/master.X/_MPU60
      +                          50.c: 92:     _temp_tens = (_temp - _temp_units*10 - _temp_tenths)/100;
  6814  0A32  3064               	movlw	100
  6815  0A33  00A7               	movwf	___awdiv@divisor
  6816  0A34  3000               	movlw	0
  6817  0A35  00A8               	movwf	___awdiv@divisor+1
  6818  0A36  0837               	movf	Temp_Conversion@_temp_units+1,w
  6819  0A37  00A1               	movwf	___wmul@multiplier+1
  6820  0A38  0836               	movf	Temp_Conversion@_temp_units,w
  6821  0A39  00A0               	movwf	___wmul@multiplier
  6822  0A3A  30F6               	movlw	246
  6823  0A3B  00A2               	movwf	___wmul@multiplicand
  6824  0A3C  30FF               	movlw	255
  6825  0A3D  00A3               	movwf	___wmul@multiplicand+1
  6826  0A3E  160A  118A  26CB  120A  158A  	fcall	___wmul
  6827  0A43  1283               	bcf	3,5	;RP0=0, select bank0
  6828  0A44  1303               	bcf	3,6	;RP1=0, select bank0
  6829  0A45  083E               	movf	Temp_Conversion@_temp_tenths,w
  6830  0A46  0220               	subwf	?___wmul,w
  6831  0A47  00B2               	movwf	??_Temp_Conversion
  6832  0A48  083F               	movf	Temp_Conversion@_temp_tenths+1,w
  6833  0A49  1C03               	skipc
  6834  0A4A  0A3F               	incf	Temp_Conversion@_temp_tenths+1,w
  6835  0A4B  0221               	subwf	?___wmul+1,w
  6836  0A4C  00B3               	movwf	??_Temp_Conversion+1
  6837  0A4D  0830               	movf	Temp_Conversion@_temp,w
  6838  0A4E  0732               	addwf	??_Temp_Conversion,w
  6839  0A4F  00A9               	movwf	___awdiv@dividend
  6840  0A50  0831               	movf	Temp_Conversion@_temp+1,w
  6841  0A51  1803               	skipnc
  6842  0A52  0A31               	incf	Temp_Conversion@_temp+1,w
  6843  0A53  0733               	addwf	??_Temp_Conversion+1,w
  6844  0A54  00AA               	movwf	___awdiv@dividend+1
  6845  0A55  120A  158A  218E  120A  158A  	fcall	___awdiv
  6846  0A5A  1283               	bcf	3,5	;RP0=0, select bank0
  6847  0A5B  1303               	bcf	3,6	;RP1=0, select bank0
  6848  0A5C  0828               	movf	?___awdiv+1,w
  6849  0A5D  00B5               	movwf	Temp_Conversion@_temp_tens+1
  6850  0A5E  0827               	movf	?___awdiv,w
  6851  0A5F  00B4               	movwf	Temp_Conversion@_temp_tens
  6852  0A60                     l2336:
  6853                           
  6854                           ;D:/UVG-IngenieriaElectronica/5to-Semestre/Electronica-Digital-2/mini-02/master.X/_MPU60
      +                          50.c: 94:     _write_tenths = _temp_tenths + 48;
  6855  0A60  083E               	movf	Temp_Conversion@_temp_tenths,w
  6856  0A61  3E30               	addlw	48
  6857  0A62  00B8               	movwf	Temp_Conversion@_write_tenths
  6858  0A63  083F               	movf	Temp_Conversion@_temp_tenths+1,w
  6859  0A64  1803               	skipnc
  6860  0A65  3E01               	addlw	1
  6861  0A66  3E00               	addlw	0
  6862  0A67  00B9               	movwf	Temp_Conversion@_write_tenths+1
  6863  0A68                     l2338:
  6864                           
  6865                           ;D:/UVG-IngenieriaElectronica/5to-Semestre/Electronica-Digital-2/mini-02/master.X/_MPU60
      +                          50.c: 95:     _write_units = _temp_units + 48;
  6866  0A68  0836               	movf	Temp_Conversion@_temp_units,w
  6867  0A69  3E30               	addlw	48
  6868  0A6A  00BA               	movwf	Temp_Conversion@_write_units
  6869  0A6B  0837               	movf	Temp_Conversion@_temp_units+1,w
  6870  0A6C  1803               	skipnc
  6871  0A6D  3E01               	addlw	1
  6872  0A6E  3E00               	addlw	0
  6873  0A6F  00BB               	movwf	Temp_Conversion@_write_units+1
  6874  0A70                     l2340:
  6875                           
  6876                           ;D:/UVG-IngenieriaElectronica/5to-Semestre/Electronica-Digital-2/mini-02/master.X/_MPU60
      +                          50.c: 96:     _write_tens = _temp_tens + 48;
  6877  0A70  0834               	movf	Temp_Conversion@_temp_tens,w
  6878  0A71  3E30               	addlw	48
  6879  0A72  00BC               	movwf	Temp_Conversion@_write_tens
  6880  0A73  0835               	movf	Temp_Conversion@_temp_tens+1,w
  6881  0A74  1803               	skipnc
  6882  0A75  3E01               	addlw	1
  6883  0A76  3E00               	addlw	0
  6884  0A77  00BD               	movwf	Temp_Conversion@_write_tens+1
  6885  0A78                     l2342:
  6886                           
  6887                           ;D:/UVG-IngenieriaElectronica/5to-Semestre/Electronica-Digital-2/mini-02/master.X/_MPU60
      +                          50.c: 98:     writeChar(_write_tens);
  6888  0A78  083C               	movf	Temp_Conversion@_write_tens,w
  6889  0A79  160A  118A  25FE  120A  158A  	fcall	_writeChar
  6890  0A7E                     l2344:
  6891                           
  6892                           ;D:/UVG-IngenieriaElectronica/5to-Semestre/Electronica-Digital-2/mini-02/master.X/_MPU60
      +                          50.c: 99:     txfunc(_write_tens);
  6893  0A7E  1283               	bcf	3,5	;RP0=0, select bank0
  6894  0A7F  1303               	bcf	3,6	;RP1=0, select bank0
  6895  0A80  083C               	movf	Temp_Conversion@_write_tens,w
  6896  0A81  160A  118A  25F0  120A  158A  	fcall	_txfunc
  6897  0A86                     l2346:
  6898                           
  6899                           ;D:/UVG-IngenieriaElectronica/5to-Semestre/Electronica-Digital-2/mini-02/master.X/_MPU60
      +                          50.c: 101:     writeChar(_write_units);
  6900  0A86  1283               	bcf	3,5	;RP0=0, select bank0
  6901  0A87  1303               	bcf	3,6	;RP1=0, select bank0
  6902  0A88  083A               	movf	Temp_Conversion@_write_units,w
  6903  0A89  160A  118A  25FE  120A  158A  	fcall	_writeChar
  6904  0A8E                     l2348:
  6905                           
  6906                           ;D:/UVG-IngenieriaElectronica/5to-Semestre/Electronica-Digital-2/mini-02/master.X/_MPU60
      +                          50.c: 102:     txfunc(_write_units);
  6907  0A8E  1283               	bcf	3,5	;RP0=0, select bank0
  6908  0A8F  1303               	bcf	3,6	;RP1=0, select bank0
  6909  0A90  083A               	movf	Temp_Conversion@_write_units,w
  6910  0A91  160A  118A  25F0  120A  158A  	fcall	_txfunc
  6911  0A96                     l2350:
  6912                           
  6913                           ;D:/UVG-IngenieriaElectronica/5to-Semestre/Electronica-Digital-2/mini-02/master.X/_MPU60
      +                          50.c: 104:     writeChar('.');
  6914  0A96  302E               	movlw	46
  6915  0A97  160A  118A  25FE  120A  158A  	fcall	_writeChar
  6916  0A9C                     l2352:
  6917                           
  6918                           ;D:/UVG-IngenieriaElectronica/5to-Semestre/Electronica-Digital-2/mini-02/master.X/_MPU60
      +                          50.c: 106:     writeChar(_write_tenths);
  6919  0A9C  1283               	bcf	3,5	;RP0=0, select bank0
  6920  0A9D  1303               	bcf	3,6	;RP1=0, select bank0
  6921  0A9E  0838               	movf	Temp_Conversion@_write_tenths,w
  6922  0A9F  160A  118A  25FE  120A  158A  	fcall	_writeChar
  6923  0AA4                     l2354:
  6924                           
  6925                           ;D:/UVG-IngenieriaElectronica/5to-Semestre/Electronica-Digital-2/mini-02/master.X/_MPU60
      +                          50.c: 107:     txfunc(_write_tenths);
  6926  0AA4  1283               	bcf	3,5	;RP0=0, select bank0
  6927  0AA5  1303               	bcf	3,6	;RP1=0, select bank0
  6928  0AA6  0838               	movf	Temp_Conversion@_write_tenths,w
  6929  0AA7  160A  118A  25F0  120A  158A  	fcall	_txfunc
  6930  0AAC                     l288:
  6931  0AAC  0008               	return
  6932  0AAD                     __end_of_Temp_Conversion:
  6933                           
  6934                           	psect	text20
  6935  15FE                     __ptext20:	
  6936 ;; *************** function _writeChar *****************
  6937 ;; Defined at:
  6938 ;;		line 49 in file "D:/UVG-IngenieriaElectronica/5to-Semestre/Electronica-Digital-2/mini-02/master.X/_LCD.c"
  6939 ;; Parameters:    Size  Location     Type
  6940 ;;  a               1    wreg     unsigned char 
  6941 ;; Auto vars:     Size  Location     Type
  6942 ;;  a               1    1[BANK0 ] unsigned char 
  6943 ;; Return value:  Size  Location     Type
  6944 ;;                  1    wreg      void 
  6945 ;; Registers used:
  6946 ;;		wreg
  6947 ;; Tracked objects:
  6948 ;;		On entry : 0/0
  6949 ;;		On exit  : 0/0
  6950 ;;		Unchanged: 0/0
  6951 ;; Data sizes:     COMMON   BANK0   BANK1   BANK3   BANK2
  6952 ;;      Params:         0       0       0       0       0
  6953 ;;      Locals:         0       1       0       0       0
  6954 ;;      Temps:          0       1       0       0       0
  6955 ;;      Totals:         0       2       0       0       0
  6956 ;;Total ram usage:        2 bytes
  6957 ;; Hardware stack levels used: 1
  6958 ;; Hardware stack levels required when called: 4
  6959 ;; This function calls:
  6960 ;;		Nothing
  6961 ;; This function is called by:
  6962 ;;		_writeString
  6963 ;;		_Temp_Conversion
  6964 ;; This function uses a non-reentrant model
  6965 ;;
  6966                           
  6967                           
  6968                           ;psect for function _writeChar
  6969  15FE                     _writeChar:
  6970                           
  6971                           ;incstack = 0
  6972                           ; Regs used in _writeChar: [wreg]
  6973                           ;writeChar@a stored from wreg
  6974  15FE  1283               	bcf	3,5	;RP0=0, select bank0
  6975  15FF  1303               	bcf	3,6	;RP1=0, select bank0
  6976  1600  00A1               	movwf	writeChar@a
  6977  1601                     l2064:
  6978                           
  6979                           ;D:/UVG-IngenieriaElectronica/5to-Semestre/Electronica-Digital-2/mini-02/master.X/_LCD.c
      +                          : 50:     PORTBbits.RB0 = 1;
  6980  1601  1406               	bsf	6,0	;volatile
  6981  1602                     l2066:
  6982                           
  6983                           ;D:/UVG-IngenieriaElectronica/5to-Semestre/Electronica-Digital-2/mini-02/master.X/_LCD.c
      +                          : 51:     PORTD = a;
  6984  1602  0821               	movf	writeChar@a,w
  6985  1603  0088               	movwf	8	;volatile
  6986  1604                     l2068:
  6987                           
  6988                           ;D:/UVG-IngenieriaElectronica/5to-Semestre/Electronica-Digital-2/mini-02/master.X/_LCD.c
      +                          : 52:     PORTBbits.RB1 = 1;
  6989  1604  1486               	bsf	6,1	;volatile
  6990                           
  6991                           ;D:/UVG-IngenieriaElectronica/5to-Semestre/Electronica-Digital-2/mini-02/master.X/_LCD.c
      +                          : 53:     _delay((unsigned long)((40)*(8000000/4000000.0)));
  6992  1605  3019               	movlw	25
  6993  1606  1283               	bcf	3,5	;RP0=0, select bank0
  6994  1607  1303               	bcf	3,6	;RP1=0, select bank0
  6995  1608  00A0               	movwf	??_writeChar
  6996  1609                     u3837:
  6997  1609  0BA0               	decfsz	??_writeChar,f
  6998  160A  2E09               	goto	u3837
  6999  160B  2E0C               	nop2
  7000  160C                     l2070:
  7001                           
  7002                           ;D:/UVG-IngenieriaElectronica/5to-Semestre/Electronica-Digital-2/mini-02/master.X/_LCD.c
      +                          : 54:     PORTBbits.RB1 = 0;
  7003  160C  1283               	bcf	3,5	;RP0=0, select bank0
  7004  160D  1303               	bcf	3,6	;RP1=0, select bank0
  7005  160E  1086               	bcf	6,1	;volatile
  7006  160F                     l203:
  7007  160F  0008               	return
  7008  1610                     __end_of_writeChar:
  7009                           
  7010                           	psect	text21
  7011  15F0                     __ptext21:	
  7012 ;; *************** function _txfunc *****************
  7013 ;; Defined at:
  7014 ;;		line 37 in file "D:/UVG-IngenieriaElectronica/5to-Semestre/Electronica-Digital-2/mini-02/master.X/_UART.c"
  7015 ;; Parameters:    Size  Location     Type
  7016 ;;  data            1    wreg     unsigned char 
  7017 ;; Auto vars:     Size  Location     Type
  7018 ;;  data            1    0[BANK0 ] unsigned char 
  7019 ;; Return value:  Size  Location     Type
  7020 ;;                  1    wreg      void 
  7021 ;; Registers used:
  7022 ;;		wreg
  7023 ;; Tracked objects:
  7024 ;;		On entry : 0/0
  7025 ;;		On exit  : 0/0
  7026 ;;		Unchanged: 0/0
  7027 ;; Data sizes:     COMMON   BANK0   BANK1   BANK3   BANK2
  7028 ;;      Params:         0       0       0       0       0
  7029 ;;      Locals:         0       1       0       0       0
  7030 ;;      Temps:          0       0       0       0       0
  7031 ;;      Totals:         0       1       0       0       0
  7032 ;;Total ram usage:        1 bytes
  7033 ;; Hardware stack levels used: 1
  7034 ;; Hardware stack levels required when called: 4
  7035 ;; This function calls:
  7036 ;;		Nothing
  7037 ;; This function is called by:
  7038 ;;		_MPU6050_Read
  7039 ;;		_Temp_Conversion
  7040 ;;		_string
  7041 ;; This function uses a non-reentrant model
  7042 ;;
  7043                           
  7044                           
  7045                           ;psect for function _txfunc
  7046  15F0                     _txfunc:
  7047                           
  7048                           ;incstack = 0
  7049                           ; Regs used in _txfunc: [wreg]
  7050                           ;txfunc@data stored from wreg
  7051  15F0  1283               	bcf	3,5	;RP0=0, select bank0
  7052  15F1  1303               	bcf	3,6	;RP1=0, select bank0
  7053  15F2  00A0               	movwf	txfunc@data
  7054  15F3                     l2092:
  7055  15F3                     l241:	
  7056                           ;D:/UVG-IngenieriaElectronica/5to-Semestre/Electronica-Digital-2/mini-02/master.X/_UART.
      +                          c: 38:     while(TXSTAbits.TRMT == 0);
  7057                           
  7058  15F3  1683               	bsf	3,5	;RP0=1, select bank1
  7059  15F4  1303               	bcf	3,6	;RP1=0, select bank1
  7060  15F5  1C98               	btfss	24,1	;volatile
  7061  15F6  2DF8               	goto	u1991
  7062  15F7  2DF9               	goto	u1990
  7063  15F8                     u1991:
  7064  15F8  2DF3               	goto	l241
  7065  15F9                     u1990:
  7066  15F9                     l2094:
  7067                           
  7068                           ;D:/UVG-IngenieriaElectronica/5to-Semestre/Electronica-Digital-2/mini-02/master.X/_UART.
      +                          c: 39:     TXREG = data;
  7069  15F9  1283               	bcf	3,5	;RP0=0, select bank0
  7070  15FA  1303               	bcf	3,6	;RP1=0, select bank0
  7071  15FB  0820               	movf	txfunc@data,w
  7072  15FC  0099               	movwf	25	;volatile
  7073  15FD                     l244:
  7074  15FD  0008               	return
  7075  15FE                     __end_of_txfunc:
  7076                           
  7077                           	psect	text22
  7078  16CB                     __ptext22:	
  7079 ;; *************** function ___wmul *****************
  7080 ;; Defined at:
  7081 ;;		line 15 in file "C:\Program Files\Microchip\xc8\v2.32\pic\sources\c90\common\Umul16.c"
  7082 ;; Parameters:    Size  Location     Type
  7083 ;;  multiplier      2    0[BANK0 ] unsigned int 
  7084 ;;  multiplicand    2    2[BANK0 ] unsigned int 
  7085 ;; Auto vars:     Size  Location     Type
  7086 ;;  product         2    4[BANK0 ] unsigned int 
  7087 ;; Return value:  Size  Location     Type
  7088 ;;                  2    0[BANK0 ] unsigned int 
  7089 ;; Registers used:
  7090 ;;		wreg, status,2, status,0
  7091 ;; Tracked objects:
  7092 ;;		On entry : 0/0
  7093 ;;		On exit  : 0/0
  7094 ;;		Unchanged: 0/0
  7095 ;; Data sizes:     COMMON   BANK0   BANK1   BANK3   BANK2
  7096 ;;      Params:         0       4       0       0       0
  7097 ;;      Locals:         0       2       0       0       0
  7098 ;;      Temps:          0       0       0       0       0
  7099 ;;      Totals:         0       6       0       0       0
  7100 ;;Total ram usage:        6 bytes
  7101 ;; Hardware stack levels used: 1
  7102 ;; Hardware stack levels required when called: 4
  7103 ;; This function calls:
  7104 ;;		Nothing
  7105 ;; This function is called by:
  7106 ;;		_Temp_Conversion
  7107 ;; This function uses a non-reentrant model
  7108 ;;
  7109                           
  7110                           
  7111                           ;psect for function ___wmul
  7112  16CB                     ___wmul:
  7113  16CB                     l2096:	
  7114                           ;incstack = 0
  7115                           ; Regs used in ___wmul: [wreg+status,2+status,0]
  7116                           
  7117  16CB  1283               	bcf	3,5	;RP0=0, select bank0
  7118  16CC  1303               	bcf	3,6	;RP1=0, select bank0
  7119  16CD  01A4               	clrf	___wmul@product
  7120  16CE  01A5               	clrf	___wmul@product+1
  7121  16CF                     l2098:
  7122  16CF  1C20               	btfss	___wmul@multiplier,0
  7123  16D0  2ED2               	goto	u2001
  7124  16D1  2ED3               	goto	u2000
  7125  16D2                     u2001:
  7126  16D2  2ED9               	goto	l374
  7127  16D3                     u2000:
  7128  16D3                     l2100:
  7129  16D3  0822               	movf	___wmul@multiplicand,w
  7130  16D4  07A4               	addwf	___wmul@product,f
  7131  16D5  1803               	skipnc
  7132  16D6  0AA5               	incf	___wmul@product+1,f
  7133  16D7  0823               	movf	___wmul@multiplicand+1,w
  7134  16D8  07A5               	addwf	___wmul@product+1,f
  7135  16D9                     l374:
  7136  16D9  3001               	movlw	1
  7137  16DA                     u2015:
  7138  16DA  1003               	clrc
  7139  16DB  0DA2               	rlf	___wmul@multiplicand,f
  7140  16DC  0DA3               	rlf	___wmul@multiplicand+1,f
  7141  16DD  3EFF               	addlw	-1
  7142  16DE  1D03               	skipz
  7143  16DF  2EDA               	goto	u2015
  7144  16E0                     l2102:
  7145  16E0  3001               	movlw	1
  7146  16E1                     u2025:
  7147  16E1  1003               	clrc
  7148  16E2  0CA1               	rrf	___wmul@multiplier+1,f
  7149  16E3  0CA0               	rrf	___wmul@multiplier,f
  7150  16E4  3EFF               	addlw	-1
  7151  16E5  1D03               	skipz
  7152  16E6  2EE1               	goto	u2025
  7153  16E7                     l2104:
  7154  16E7  0820               	movf	___wmul@multiplier,w
  7155  16E8  0421               	iorwf	___wmul@multiplier+1,w
  7156  16E9  1D03               	btfss	3,2
  7157  16EA  2EEC               	goto	u2031
  7158  16EB  2EED               	goto	u2030
  7159  16EC                     u2031:
  7160  16EC  2ECF               	goto	l2098
  7161  16ED                     u2030:
  7162  16ED                     l2106:
  7163  16ED  0825               	movf	___wmul@product+1,w
  7164  16EE  00A1               	movwf	?___wmul+1
  7165  16EF  0824               	movf	___wmul@product,w
  7166  16F0  00A0               	movwf	?___wmul
  7167  16F1                     l376:
  7168  16F1  0008               	return
  7169  16F2                     __end_of___wmul:
  7170                           
  7171                           	psect	text23
  7172  0802                     __ptext23:	
  7173 ;; *************** function ___awmod *****************
  7174 ;; Defined at:
  7175 ;;		line 5 in file "C:\Program Files\Microchip\xc8\v2.32\pic\sources\c90\common\awmod.c"
  7176 ;; Parameters:    Size  Location     Type
  7177 ;;  divisor         2    0[BANK0 ] int 
  7178 ;;  dividend        2    2[BANK0 ] int 
  7179 ;; Auto vars:     Size  Location     Type
  7180 ;;  sign            1    6[BANK0 ] unsigned char 
  7181 ;;  counter         1    5[BANK0 ] unsigned char 
  7182 ;; Return value:  Size  Location     Type
  7183 ;;                  2    0[BANK0 ] int 
  7184 ;; Registers used:
  7185 ;;		wreg, status,2, status,0
  7186 ;; Tracked objects:
  7187 ;;		On entry : 0/0
  7188 ;;		On exit  : 0/0
  7189 ;;		Unchanged: 0/0
  7190 ;; Data sizes:     COMMON   BANK0   BANK1   BANK3   BANK2
  7191 ;;      Params:         0       4       0       0       0
  7192 ;;      Locals:         0       2       0       0       0
  7193 ;;      Temps:          0       1       0       0       0
  7194 ;;      Totals:         0       7       0       0       0
  7195 ;;Total ram usage:        7 bytes
  7196 ;; Hardware stack levels used: 1
  7197 ;; Hardware stack levels required when called: 4
  7198 ;; This function calls:
  7199 ;;		Nothing
  7200 ;; This function is called by:
  7201 ;;		_Temp_Conversion
  7202 ;; This function uses a non-reentrant model
  7203 ;;
  7204                           
  7205                           
  7206                           ;psect for function ___awmod
  7207  0802                     ___awmod:
  7208  0802                     l2154:	
  7209                           ;incstack = 0
  7210                           ; Regs used in ___awmod: [wreg+status,2+status,0]
  7211                           
  7212  0802  1283               	bcf	3,5	;RP0=0, select bank0
  7213  0803  1303               	bcf	3,6	;RP1=0, select bank0
  7214  0804  01A6               	clrf	___awmod@sign
  7215  0805                     l2156:
  7216  0805  1FA3               	btfss	___awmod@dividend+1,7
  7217  0806  2808               	goto	u2141
  7218  0807  2809               	goto	u2140
  7219  0808                     u2141:
  7220  0808  2810               	goto	l2162
  7221  0809                     u2140:
  7222  0809                     l2158:
  7223  0809  09A2               	comf	___awmod@dividend,f
  7224  080A  09A3               	comf	___awmod@dividend+1,f
  7225  080B  0AA2               	incf	___awmod@dividend,f
  7226  080C  1903               	skipnz
  7227  080D  0AA3               	incf	___awmod@dividend+1,f
  7228  080E                     l2160:
  7229  080E  01A6               	clrf	___awmod@sign
  7230  080F  0AA6               	incf	___awmod@sign,f
  7231  0810                     l2162:
  7232  0810  1FA1               	btfss	___awmod@divisor+1,7
  7233  0811  2813               	goto	u2151
  7234  0812  2814               	goto	u2150
  7235  0813                     u2151:
  7236  0813  2819               	goto	l2166
  7237  0814                     u2150:
  7238  0814                     l2164:
  7239  0814  09A0               	comf	___awmod@divisor,f
  7240  0815  09A1               	comf	___awmod@divisor+1,f
  7241  0816  0AA0               	incf	___awmod@divisor,f
  7242  0817  1903               	skipnz
  7243  0818  0AA1               	incf	___awmod@divisor+1,f
  7244  0819                     l2166:
  7245  0819  0820               	movf	___awmod@divisor,w
  7246  081A  0421               	iorwf	___awmod@divisor+1,w
  7247  081B  1903               	btfsc	3,2
  7248  081C  281E               	goto	u2161
  7249  081D  281F               	goto	u2160
  7250  081E                     u2161:
  7251  081E  284E               	goto	l2184
  7252  081F                     u2160:
  7253  081F                     l2168:
  7254  081F  01A5               	clrf	___awmod@counter
  7255  0820  0AA5               	incf	___awmod@counter,f
  7256  0821  282D               	goto	l2174
  7257  0822                     l2170:
  7258  0822  3001               	movlw	1
  7259  0823                     u2175:
  7260  0823  1003               	clrc
  7261  0824  0DA0               	rlf	___awmod@divisor,f
  7262  0825  0DA1               	rlf	___awmod@divisor+1,f
  7263  0826  3EFF               	addlw	-1
  7264  0827  1D03               	skipz
  7265  0828  2823               	goto	u2175
  7266  0829                     l2172:
  7267  0829  3001               	movlw	1
  7268  082A  00A4               	movwf	??___awmod
  7269  082B  0824               	movf	??___awmod,w
  7270  082C  07A5               	addwf	___awmod@counter,f
  7271  082D                     l2174:
  7272  082D  1FA1               	btfss	___awmod@divisor+1,7
  7273  082E  2830               	goto	u2181
  7274  082F  2831               	goto	u2180
  7275  0830                     u2181:
  7276  0830  2822               	goto	l2170
  7277  0831                     u2180:
  7278  0831                     l2176:
  7279  0831  0821               	movf	___awmod@divisor+1,w
  7280  0832  0223               	subwf	___awmod@dividend+1,w
  7281  0833  1D03               	skipz
  7282  0834  2837               	goto	u2195
  7283  0835  0820               	movf	___awmod@divisor,w
  7284  0836  0222               	subwf	___awmod@dividend,w
  7285  0837                     u2195:
  7286  0837  1C03               	skipc
  7287  0838  283A               	goto	u2191
  7288  0839  283B               	goto	u2190
  7289  083A                     u2191:
  7290  083A  2841               	goto	l2180
  7291  083B                     u2190:
  7292  083B                     l2178:
  7293  083B  0820               	movf	___awmod@divisor,w
  7294  083C  02A2               	subwf	___awmod@dividend,f
  7295  083D  0821               	movf	___awmod@divisor+1,w
  7296  083E  1C03               	skipc
  7297  083F  03A3               	decf	___awmod@dividend+1,f
  7298  0840  02A3               	subwf	___awmod@dividend+1,f
  7299  0841                     l2180:
  7300  0841  3001               	movlw	1
  7301  0842                     u2205:
  7302  0842  1003               	clrc
  7303  0843  0CA1               	rrf	___awmod@divisor+1,f
  7304  0844  0CA0               	rrf	___awmod@divisor,f
  7305  0845  3EFF               	addlw	-1
  7306  0846  1D03               	skipz
  7307  0847  2842               	goto	u2205
  7308  0848                     l2182:
  7309  0848  3001               	movlw	1
  7310  0849  02A5               	subwf	___awmod@counter,f
  7311  084A  1D03               	btfss	3,2
  7312  084B  284D               	goto	u2211
  7313  084C  284E               	goto	u2210
  7314  084D                     u2211:
  7315  084D  2831               	goto	l2176
  7316  084E                     u2210:
  7317  084E                     l2184:
  7318  084E  0826               	movf	___awmod@sign,w
  7319  084F  1903               	btfsc	3,2
  7320  0850  2852               	goto	u2221
  7321  0851  2853               	goto	u2220
  7322  0852                     u2221:
  7323  0852  2858               	goto	l2188
  7324  0853                     u2220:
  7325  0853                     l2186:
  7326  0853  09A2               	comf	___awmod@dividend,f
  7327  0854  09A3               	comf	___awmod@dividend+1,f
  7328  0855  0AA2               	incf	___awmod@dividend,f
  7329  0856  1903               	skipnz
  7330  0857  0AA3               	incf	___awmod@dividend+1,f
  7331  0858                     l2188:
  7332  0858  0823               	movf	___awmod@dividend+1,w
  7333  0859  00A1               	movwf	?___awmod+1
  7334  085A  0822               	movf	___awmod@dividend,w
  7335  085B  00A0               	movwf	?___awmod
  7336  085C                     l540:
  7337  085C  0008               	return
  7338  085D                     __end_of___awmod:
  7339                           
  7340                           	psect	text24
  7341  098E                     __ptext24:	
  7342 ;; *************** function ___awdiv *****************
  7343 ;; Defined at:
  7344 ;;		line 5 in file "C:\Program Files\Microchip\xc8\v2.32\pic\sources\c90\common\awdiv.c"
  7345 ;; Parameters:    Size  Location     Type
  7346 ;;  divisor         2    7[BANK0 ] int 
  7347 ;;  dividend        2    9[BANK0 ] int 
  7348 ;; Auto vars:     Size  Location     Type
  7349 ;;  quotient        2   14[BANK0 ] int 
  7350 ;;  sign            1   13[BANK0 ] unsigned char 
  7351 ;;  counter         1   12[BANK0 ] unsigned char 
  7352 ;; Return value:  Size  Location     Type
  7353 ;;                  2    7[BANK0 ] int 
  7354 ;; Registers used:
  7355 ;;		wreg, status,2, status,0
  7356 ;; Tracked objects:
  7357 ;;		On entry : 0/0
  7358 ;;		On exit  : 0/0
  7359 ;;		Unchanged: 0/0
  7360 ;; Data sizes:     COMMON   BANK0   BANK1   BANK3   BANK2
  7361 ;;      Params:         0       4       0       0       0
  7362 ;;      Locals:         0       4       0       0       0
  7363 ;;      Temps:          0       1       0       0       0
  7364 ;;      Totals:         0       9       0       0       0
  7365 ;;Total ram usage:        9 bytes
  7366 ;; Hardware stack levels used: 1
  7367 ;; Hardware stack levels required when called: 4
  7368 ;; This function calls:
  7369 ;;		Nothing
  7370 ;; This function is called by:
  7371 ;;		_Temp_Conversion
  7372 ;; This function uses a non-reentrant model
  7373 ;;
  7374                           
  7375                           
  7376                           ;psect for function ___awdiv
  7377  098E                     ___awdiv:
  7378  098E                     l2110:	
  7379                           ;incstack = 0
  7380                           ; Regs used in ___awdiv: [wreg+status,2+status,0]
  7381                           
  7382  098E  1283               	bcf	3,5	;RP0=0, select bank0
  7383  098F  1303               	bcf	3,6	;RP1=0, select bank0
  7384  0990  01AD               	clrf	___awdiv@sign
  7385  0991                     l2112:
  7386  0991  1FA8               	btfss	___awdiv@divisor+1,7
  7387  0992  2994               	goto	u2041
  7388  0993  2995               	goto	u2040
  7389  0994                     u2041:
  7390  0994  299C               	goto	l2118
  7391  0995                     u2040:
  7392  0995                     l2114:
  7393  0995  09A7               	comf	___awdiv@divisor,f
  7394  0996  09A8               	comf	___awdiv@divisor+1,f
  7395  0997  0AA7               	incf	___awdiv@divisor,f
  7396  0998  1903               	skipnz
  7397  0999  0AA8               	incf	___awdiv@divisor+1,f
  7398  099A                     l2116:
  7399  099A  01AD               	clrf	___awdiv@sign
  7400  099B  0AAD               	incf	___awdiv@sign,f
  7401  099C                     l2118:
  7402  099C  1FAA               	btfss	___awdiv@dividend+1,7
  7403  099D  299F               	goto	u2051
  7404  099E  29A0               	goto	u2050
  7405  099F                     u2051:
  7406  099F  29A9               	goto	l2124
  7407  09A0                     u2050:
  7408  09A0                     l2120:
  7409  09A0  09A9               	comf	___awdiv@dividend,f
  7410  09A1  09AA               	comf	___awdiv@dividend+1,f
  7411  09A2  0AA9               	incf	___awdiv@dividend,f
  7412  09A3  1903               	skipnz
  7413  09A4  0AAA               	incf	___awdiv@dividend+1,f
  7414  09A5                     l2122:
  7415  09A5  3001               	movlw	1
  7416  09A6  00AB               	movwf	??___awdiv
  7417  09A7  082B               	movf	??___awdiv,w
  7418  09A8  06AD               	xorwf	___awdiv@sign,f
  7419  09A9                     l2124:
  7420  09A9  01AE               	clrf	___awdiv@quotient
  7421  09AA  01AF               	clrf	___awdiv@quotient+1
  7422  09AB                     l2126:
  7423  09AB  0827               	movf	___awdiv@divisor,w
  7424  09AC  0428               	iorwf	___awdiv@divisor+1,w
  7425  09AD  1903               	btfsc	3,2
  7426  09AE  29B0               	goto	u2061
  7427  09AF  29B1               	goto	u2060
  7428  09B0                     u2061:
  7429  09B0  29E8               	goto	l2146
  7430  09B1                     u2060:
  7431  09B1                     l2128:
  7432  09B1  01AC               	clrf	___awdiv@counter
  7433  09B2  0AAC               	incf	___awdiv@counter,f
  7434  09B3  29BF               	goto	l2134
  7435  09B4                     l2130:
  7436  09B4  3001               	movlw	1
  7437  09B5                     u2075:
  7438  09B5  1003               	clrc
  7439  09B6  0DA7               	rlf	___awdiv@divisor,f
  7440  09B7  0DA8               	rlf	___awdiv@divisor+1,f
  7441  09B8  3EFF               	addlw	-1
  7442  09B9  1D03               	skipz
  7443  09BA  29B5               	goto	u2075
  7444  09BB                     l2132:
  7445  09BB  3001               	movlw	1
  7446  09BC  00AB               	movwf	??___awdiv
  7447  09BD  082B               	movf	??___awdiv,w
  7448  09BE  07AC               	addwf	___awdiv@counter,f
  7449  09BF                     l2134:
  7450  09BF  1FA8               	btfss	___awdiv@divisor+1,7
  7451  09C0  29C2               	goto	u2081
  7452  09C1  29C3               	goto	u2080
  7453  09C2                     u2081:
  7454  09C2  29B4               	goto	l2130
  7455  09C3                     u2080:
  7456  09C3                     l2136:
  7457  09C3  3001               	movlw	1
  7458  09C4                     u2095:
  7459  09C4  1003               	clrc
  7460  09C5  0DAE               	rlf	___awdiv@quotient,f
  7461  09C6  0DAF               	rlf	___awdiv@quotient+1,f
  7462  09C7  3EFF               	addlw	-1
  7463  09C8  1D03               	skipz
  7464  09C9  29C4               	goto	u2095
  7465  09CA  0828               	movf	___awdiv@divisor+1,w
  7466  09CB  022A               	subwf	___awdiv@dividend+1,w
  7467  09CC  1D03               	skipz
  7468  09CD  29D0               	goto	u2105
  7469  09CE  0827               	movf	___awdiv@divisor,w
  7470  09CF  0229               	subwf	___awdiv@dividend,w
  7471  09D0                     u2105:
  7472  09D0  1C03               	skipc
  7473  09D1  29D3               	goto	u2101
  7474  09D2  29D4               	goto	u2100
  7475  09D3                     u2101:
  7476  09D3  29DB               	goto	l2142
  7477  09D4                     u2100:
  7478  09D4                     l2138:
  7479  09D4  0827               	movf	___awdiv@divisor,w
  7480  09D5  02A9               	subwf	___awdiv@dividend,f
  7481  09D6  0828               	movf	___awdiv@divisor+1,w
  7482  09D7  1C03               	skipc
  7483  09D8  03AA               	decf	___awdiv@dividend+1,f
  7484  09D9  02AA               	subwf	___awdiv@dividend+1,f
  7485  09DA                     l2140:
  7486  09DA  142E               	bsf	___awdiv@quotient,0
  7487  09DB                     l2142:
  7488  09DB  3001               	movlw	1
  7489  09DC                     u2115:
  7490  09DC  1003               	clrc
  7491  09DD  0CA8               	rrf	___awdiv@divisor+1,f
  7492  09DE  0CA7               	rrf	___awdiv@divisor,f
  7493  09DF  3EFF               	addlw	-1
  7494  09E0  1D03               	skipz
  7495  09E1  29DC               	goto	u2115
  7496  09E2                     l2144:
  7497  09E2  3001               	movlw	1
  7498  09E3  02AC               	subwf	___awdiv@counter,f
  7499  09E4  1D03               	btfss	3,2
  7500  09E5  29E7               	goto	u2121
  7501  09E6  29E8               	goto	u2120
  7502  09E7                     u2121:
  7503  09E7  29C3               	goto	l2136
  7504  09E8                     u2120:
  7505  09E8                     l2146:
  7506  09E8  082D               	movf	___awdiv@sign,w
  7507  09E9  1903               	btfsc	3,2
  7508  09EA  29EC               	goto	u2131
  7509  09EB  29ED               	goto	u2130
  7510  09EC                     u2131:
  7511  09EC  29F2               	goto	l2150
  7512  09ED                     u2130:
  7513  09ED                     l2148:
  7514  09ED  09AE               	comf	___awdiv@quotient,f
  7515  09EE  09AF               	comf	___awdiv@quotient+1,f
  7516  09EF  0AAE               	incf	___awdiv@quotient,f
  7517  09F0  1903               	skipnz
  7518  09F1  0AAF               	incf	___awdiv@quotient+1,f
  7519  09F2                     l2150:
  7520  09F2  082F               	movf	___awdiv@quotient+1,w
  7521  09F3  00A8               	movwf	?___awdiv+1
  7522  09F4  082E               	movf	___awdiv@quotient,w
  7523  09F5  00A7               	movwf	?___awdiv
  7524  09F6                     l527:
  7525  09F6  0008               	return
  7526  09F7                     __end_of___awdiv:
  7527                           
  7528                           	psect	text25
  7529  1626                     __ptext25:	
  7530 ;; *************** function _I2C_Start *****************
  7531 ;; Defined at:
  7532 ;;		line 44 in file "D:/UVG-IngenieriaElectronica/5to-Semestre/Electronica-Digital-2/mini-02/master.X/_I2C.c"
  7533 ;; Parameters:    Size  Location     Type
  7534 ;;  add             1    wreg     unsigned char 
  7535 ;; Auto vars:     Size  Location     Type
  7536 ;;  add             1    4[BANK0 ] unsigned char 
  7537 ;; Return value:  Size  Location     Type
  7538 ;;                  1    wreg      void 
  7539 ;; Registers used:
  7540 ;;		wreg, status,2, status,0, pclath, cstack
  7541 ;; Tracked objects:
  7542 ;;		On entry : 0/0
  7543 ;;		On exit  : 0/0
  7544 ;;		Unchanged: 0/0
  7545 ;; Data sizes:     COMMON   BANK0   BANK1   BANK3   BANK2
  7546 ;;      Params:         0       0       0       0       0
  7547 ;;      Locals:         0       1       0       0       0
  7548 ;;      Temps:          0       2       0       0       0
  7549 ;;      Totals:         0       3       0       0       0
  7550 ;;Total ram usage:        3 bytes
  7551 ;; Hardware stack levels used: 1
  7552 ;; Hardware stack levels required when called: 6
  7553 ;; This function calls:
  7554 ;;		_I2C_Master_Wait
  7555 ;;		_I2C_Master_Write
  7556 ;; This function is called by:
  7557 ;;		_MPU6050_Init
  7558 ;;		_MPU6050_Read
  7559 ;; This function uses a non-reentrant model
  7560 ;;
  7561                           
  7562                           
  7563                           ;psect for function _I2C_Start
  7564  1626                     _I2C_Start:
  7565                           
  7566                           ;incstack = 0
  7567 ;; hardware stack exceeded
  7568                           ; Regs used in _I2C_Start: [wreg+status,2+status,0+pclath+cstack]
  7569                           ;I2C_Start@add stored from wreg
  7570  1626  1283               	bcf	3,5	;RP0=0, select bank0
  7571  1627  1303               	bcf	3,6	;RP1=0, select bank0
  7572  1628  00A4               	movwf	I2C_Start@add
  7573  1629                     l2040:
  7574                           
  7575                           ;D:/UVG-IngenieriaElectronica/5to-Semestre/Electronica-Digital-2/mini-02/master.X/_I2C.c
      +                          : 44: void I2C_Start(char add);D:/UVG-IngenieriaElectronica/5to-Semestre/Electronica-Dig
      +                          ital-2/mini-02/master.X/_I2C.c: 45: {;D:/UVG-IngenieriaElectronica/5to-Semestre/Electron
      +                          ica-Digital-2/mini-02/master.X/_I2C.c: 46:     I2C_Master_Wait();
  7576  1629  160A  118A  25D6  160A  118A  	fcall	_I2C_Master_Wait
  7577  162E                     l2042:
  7578                           
  7579                           ;D:/UVG-IngenieriaElectronica/5to-Semestre/Electronica-Digital-2/mini-02/master.X/_I2C.c
      +                          : 47:     SEN = 1;
  7580  162E  1683               	bsf	3,5	;RP0=1, select bank1
  7581  162F  1303               	bcf	3,6	;RP1=0, select bank1
  7582  1630  1411               	bsf	17,0	;volatile
  7583                           
  7584                           ;D:/UVG-IngenieriaElectronica/5to-Semestre/Electronica-Digital-2/mini-02/master.X/_I2C.c
      +                          : 48:     I2C_Master_Write(add);
  7585  1631  1283               	bcf	3,5	;RP0=0, select bank0
  7586  1632  1303               	bcf	3,6	;RP1=0, select bank0
  7587  1633  0824               	movf	I2C_Start@add,w
  7588  1634  00A2               	movwf	??_I2C_Start
  7589  1635  01A3               	clrf	??_I2C_Start+1
  7590  1636  0822               	movf	??_I2C_Start,w
  7591  1637  00A0               	movwf	I2C_Master_Write@d
  7592  1638  0823               	movf	??_I2C_Start+1,w
  7593  1639  00A1               	movwf	I2C_Master_Write@d+1
  7594  163A  160A  118A  25BF  160A  118A  	fcall	_I2C_Master_Write
  7595  163F                     l143:
  7596  163F  0008               	return
  7597  1640                     __end_of_I2C_Start:
  7598                           
  7599                           	psect	text26
  7600  15BF                     __ptext26:	
  7601 ;; *************** function _I2C_Master_Write *****************
  7602 ;; Defined at:
  7603 ;;		line 72 in file "D:/UVG-IngenieriaElectronica/5to-Semestre/Electronica-Digital-2/mini-02/master.X/_I2C.c"
  7604 ;; Parameters:    Size  Location     Type
  7605 ;;  d               2    0[BANK0 ] unsigned int 
  7606 ;; Auto vars:     Size  Location     Type
  7607 ;;		None
  7608 ;; Return value:  Size  Location     Type
  7609 ;;                  1    wreg      void 
  7610 ;; Registers used:
  7611 ;;		wreg, status,2, status,0, pclath, cstack
  7612 ;; Tracked objects:
  7613 ;;		On entry : 0/0
  7614 ;;		On exit  : 0/0
  7615 ;;		Unchanged: 0/0
  7616 ;; Data sizes:     COMMON   BANK0   BANK1   BANK3   BANK2
  7617 ;;      Params:         0       2       0       0       0
  7618 ;;      Locals:         0       0       0       0       0
  7619 ;;      Temps:          0       0       0       0       0
  7620 ;;      Totals:         0       2       0       0       0
  7621 ;;Total ram usage:        2 bytes
  7622 ;; Hardware stack levels used: 1
  7623 ;; Hardware stack levels required when called: 5
  7624 ;; This function calls:
  7625 ;;		_I2C_Master_Wait
  7626 ;; This function is called by:
  7627 ;;		_I2C_Start
  7628 ;;		_MPU6050_Init
  7629 ;;		_MPU6050_Read
  7630 ;;		_I2C_Read_Func
  7631 ;; This function uses a non-reentrant model
  7632 ;;
  7633                           
  7634                           
  7635                           ;psect for function _I2C_Master_Write
  7636  15BF                     _I2C_Master_Write:
  7637  15BF                     l1996:	
  7638                           ;incstack = 0
  7639 ;; hardware stack exceeded
  7640                           ; Regs used in _I2C_Master_Write: [wreg+status,2+status,0+pclath+cstack]
  7641                           
  7642                           
  7643                           ;D:/UVG-IngenieriaElectronica/5to-Semestre/Electronica-Digital-2/mini-02/master.X/_I2C.c
      +                          : 72: void I2C_Master_Write(unsigned d);D:/UVG-IngenieriaElectronica/5to-Semestre/Electr
      +                          onica-Digital-2/mini-02/master.X/_I2C.c: 73: {;D:/UVG-IngenieriaElectronica/5to-Semestre
      +                          /Electronica-Digital-2/mini-02/master.X/_I2C.c: 74:     I2C_Master_Wait();
  7644  15BF  160A  118A  25D6  160A  118A  	fcall	_I2C_Master_Wait
  7645  15C4                     l1998:
  7646                           
  7647                           ;D:/UVG-IngenieriaElectronica/5to-Semestre/Electronica-Digital-2/mini-02/master.X/_I2C.c
      +                          : 75:     SSPBUF = d;
  7648  15C4  1283               	bcf	3,5	;RP0=0, select bank0
  7649  15C5  1303               	bcf	3,6	;RP1=0, select bank0
  7650  15C6  0820               	movf	I2C_Master_Write@d,w
  7651  15C7  0093               	movwf	19	;volatile
  7652  15C8                     l152:
  7653  15C8  0008               	return
  7654  15C9                     __end_of_I2C_Master_Write:
  7655                           
  7656                           	psect	text27
  7657  16F2                     __ptext27:	
  7658 ;; *************** function _I2C_Read *****************
  7659 ;; Defined at:
  7660 ;;		line 97 in file "D:/UVG-IngenieriaElectronica/5to-Semestre/Electronica-Digital-2/mini-02/master.X/_I2C.c"
  7661 ;; Parameters:    Size  Location     Type
  7662 ;;  ACK_NACK        1    wreg     unsigned char 
  7663 ;; Auto vars:     Size  Location     Type
  7664 ;;  ACK_NACK        1    1[BANK0 ] unsigned char 
  7665 ;;  Data            1    2[BANK0 ] unsigned char 
  7666 ;; Return value:  Size  Location     Type
  7667 ;;                  1    wreg      unsigned char 
  7668 ;; Registers used:
  7669 ;;		wreg, status,2, status,0, pclath, cstack
  7670 ;; Tracked objects:
  7671 ;;		On entry : 0/0
  7672 ;;		On exit  : 0/0
  7673 ;;		Unchanged: 0/0
  7674 ;; Data sizes:     COMMON   BANK0   BANK1   BANK3   BANK2
  7675 ;;      Params:         0       0       0       0       0
  7676 ;;      Locals:         0       2       0       0       0
  7677 ;;      Temps:          0       1       0       0       0
  7678 ;;      Totals:         0       3       0       0       0
  7679 ;;Total ram usage:        3 bytes
  7680 ;; Hardware stack levels used: 1
  7681 ;; Hardware stack levels required when called: 6
  7682 ;; This function calls:
  7683 ;;		_I2C_ACK
  7684 ;;		_I2C_NACK
  7685 ;; This function is called by:
  7686 ;;		_MPU6050_Read
  7687 ;; This function uses a non-reentrant model
  7688 ;;
  7689                           
  7690                           
  7691                           ;psect for function _I2C_Read
  7692  16F2                     _I2C_Read:
  7693                           
  7694                           ;incstack = 0
  7695                           ; Regs used in _I2C_Read: [wreg+status,2+status,0+pclath+cstack]
  7696                           ;I2C_Read@ACK_NACK stored from wreg
  7697  16F2  1283               	bcf	3,5	;RP0=0, select bank0
  7698  16F3  1303               	bcf	3,6	;RP1=0, select bank0
  7699  16F4  00A1               	movwf	I2C_Read@ACK_NACK
  7700  16F5                     l2320:
  7701                           
  7702                           ;D:/UVG-IngenieriaElectronica/5to-Semestre/Electronica-Digital-2/mini-02/master.X/_I2C.c
      +                          : 97: unsigned char I2C_Read(unsigned char ACK_NACK);D:/UVG-IngenieriaElectronica/5to-Se
      +                          mestre/Electronica-Digital-2/mini-02/master.X/_I2C.c: 98: {;D:/UVG-IngenieriaElectronica
      +                          /5to-Semestre/Electronica-Digital-2/mini-02/master.X/_I2C.c: 100:     unsigned char Data
      +                          ;;D:/UVG-IngenieriaElectronica/5to-Semestre/Electronica-Digital-2/mini-02/master.X/_I2C.
      +                          c: 101:     RCEN = 1;
  7703  16F5  1683               	bsf	3,5	;RP0=1, select bank1
  7704  16F6  1303               	bcf	3,6	;RP1=0, select bank1
  7705  16F7  1591               	bsf	17,3	;volatile
  7706  16F8                     l160:	
  7707                           ;D:/UVG-IngenieriaElectronica/5to-Semestre/Electronica-Digital-2/mini-02/master.X/_I2C.c
      +                          : 102:     while(!BF);
  7708                           
  7709  16F8  1C14               	btfss	20,0	;volatile
  7710  16F9  2EFB               	goto	u2291
  7711  16FA  2EFC               	goto	u2290
  7712  16FB                     u2291:
  7713  16FB  2EF8               	goto	l160
  7714  16FC                     u2290:
  7715  16FC                     l2322:
  7716                           
  7717                           ;D:/UVG-IngenieriaElectronica/5to-Semestre/Electronica-Digital-2/mini-02/master.X/_I2C.c
      +                          : 103:     Data = SSPBUF;
  7718  16FC  1283               	bcf	3,5	;RP0=0, select bank0
  7719  16FD  1303               	bcf	3,6	;RP1=0, select bank0
  7720  16FE  0813               	movf	19,w	;volatile
  7721  16FF  00A0               	movwf	??_I2C_Read
  7722  1700  0820               	movf	??_I2C_Read,w
  7723  1701  00A2               	movwf	I2C_Read@Data
  7724  1702                     l2324:
  7725                           
  7726                           ;D:/UVG-IngenieriaElectronica/5to-Semestre/Electronica-Digital-2/mini-02/master.X/_I2C.c
      +                          : 104:     if(ACK_NACK==0)
  7727  1702  0821               	movf	I2C_Read@ACK_NACK,w
  7728  1703  1D03               	btfss	3,2
  7729  1704  2F06               	goto	u2301
  7730  1705  2F07               	goto	u2300
  7731  1706                     u2301:
  7732  1706  2F0D               	goto	l2328
  7733  1707                     u2300:
  7734  1707                     l2326:
  7735                           
  7736                           ;D:/UVG-IngenieriaElectronica/5to-Semestre/Electronica-Digital-2/mini-02/master.X/_I2C.c
      +                          : 105:         I2C_ACK();
  7737  1707  160A  118A  25AB  160A  118A  	fcall	_I2C_ACK
  7738  170C  2F12               	goto	l165
  7739  170D                     l2328:
  7740                           
  7741                           ;D:/UVG-IngenieriaElectronica/5to-Semestre/Electronica-Digital-2/mini-02/master.X/_I2C.c
      +                          : 107:         I2C_NACK();
  7742  170D  160A  118A  25B5  160A  118A  	fcall	_I2C_NACK
  7743  1712                     l165:
  7744  1712  1283               	bcf	3,5	;RP0=0, select bank0
  7745  1713  1303               	bcf	3,6	;RP1=0, select bank0
  7746  1714  1D8C               	btfss	12,3	;volatile
  7747  1715  2F17               	goto	u2311
  7748  1716  2F18               	goto	u2310
  7749  1717                     u2311:
  7750  1717  2F12               	goto	l165
  7751  1718                     u2310:
  7752  1718                     l167:
  7753                           
  7754                           ;D:/UVG-IngenieriaElectronica/5to-Semestre/Electronica-Digital-2/mini-02/master.X/_I2C.c
      +                          : 109:     SSPIF=0;
  7755  1718  118C               	bcf	12,3	;volatile
  7756  1719                     l2330:
  7757                           
  7758                           ;D:/UVG-IngenieriaElectronica/5to-Semestre/Electronica-Digital-2/mini-02/master.X/_I2C.c
      +                          : 110:     return Data;
  7759  1719  0822               	movf	I2C_Read@Data,w
  7760  171A                     l168:
  7761  171A  0008               	return
  7762  171B                     __end_of_I2C_Read:
  7763                           
  7764                           	psect	text28
  7765  15B5                     __ptext28:	
  7766 ;; *************** function _I2C_NACK *****************
  7767 ;; Defined at:
  7768 ;;		line 125 in file "D:/UVG-IngenieriaElectronica/5to-Semestre/Electronica-Digital-2/mini-02/master.X/_I2C.c"
  7769 ;; Parameters:    Size  Location     Type
  7770 ;;		None
  7771 ;; Auto vars:     Size  Location     Type
  7772 ;;		None
  7773 ;; Return value:  Size  Location     Type
  7774 ;;                  1    wreg      void 
  7775 ;; Registers used:
  7776 ;;		wreg, status,2, status,0, pclath, cstack
  7777 ;; Tracked objects:
  7778 ;;		On entry : 0/0
  7779 ;;		On exit  : 0/0
  7780 ;;		Unchanged: 0/0
  7781 ;; Data sizes:     COMMON   BANK0   BANK1   BANK3   BANK2
  7782 ;;      Params:         0       0       0       0       0
  7783 ;;      Locals:         0       0       0       0       0
  7784 ;;      Temps:          0       0       0       0       0
  7785 ;;      Totals:         0       0       0       0       0
  7786 ;;Total ram usage:        0 bytes
  7787 ;; Hardware stack levels used: 1
  7788 ;; Hardware stack levels required when called: 5
  7789 ;; This function calls:
  7790 ;;		_I2C_Master_Wait
  7791 ;; This function is called by:
  7792 ;;		_I2C_Read
  7793 ;; This function uses a non-reentrant model
  7794 ;;
  7795                           
  7796                           
  7797                           ;psect for function _I2C_NACK
  7798  15B5                     _I2C_NACK:
  7799  15B5                     l2050:	
  7800                           ;incstack = 0
  7801                           ; Regs used in _I2C_NACK: [wreg+status,2+status,0+pclath+cstack]
  7802                           
  7803                           
  7804                           ;D:/UVG-IngenieriaElectronica/5to-Semestre/Electronica-Digital-2/mini-02/master.X/_I2C.c
      +                          : 128:   I2C_Master_Wait();
  7805  15B5  160A  118A  25D6  160A  118A  	fcall	_I2C_Master_Wait
  7806  15BA                     l2052:
  7807                           
  7808                           ;D:/UVG-IngenieriaElectronica/5to-Semestre/Electronica-Digital-2/mini-02/master.X/_I2C.c
      +                          : 129:   ACKDT = 1;
  7809  15BA  1683               	bsf	3,5	;RP0=1, select bank1
  7810  15BB  1303               	bcf	3,6	;RP1=0, select bank1
  7811  15BC  1691               	bsf	17,5	;volatile
  7812  15BD                     l2054:
  7813                           
  7814                           ;D:/UVG-IngenieriaElectronica/5to-Semestre/Electronica-Digital-2/mini-02/master.X/_I2C.c
      +                          : 130:   ACKEN = 1;
  7815  15BD  1611               	bsf	17,4	;volatile
  7816  15BE                     l174:
  7817  15BE  0008               	return
  7818  15BF                     __end_of_I2C_NACK:
  7819                           
  7820                           	psect	text29
  7821  15AB                     __ptext29:	
  7822 ;; *************** function _I2C_ACK *****************
  7823 ;; Defined at:
  7824 ;;		line 115 in file "D:/UVG-IngenieriaElectronica/5to-Semestre/Electronica-Digital-2/mini-02/master.X/_I2C.c"
  7825 ;; Parameters:    Size  Location     Type
  7826 ;;		None
  7827 ;; Auto vars:     Size  Location     Type
  7828 ;;		None
  7829 ;; Return value:  Size  Location     Type
  7830 ;;                  1    wreg      void 
  7831 ;; Registers used:
  7832 ;;		wreg, status,2, status,0, pclath, cstack
  7833 ;; Tracked objects:
  7834 ;;		On entry : 0/0
  7835 ;;		On exit  : 0/0
  7836 ;;		Unchanged: 0/0
  7837 ;; Data sizes:     COMMON   BANK0   BANK1   BANK3   BANK2
  7838 ;;      Params:         0       0       0       0       0
  7839 ;;      Locals:         0       0       0       0       0
  7840 ;;      Temps:          0       0       0       0       0
  7841 ;;      Totals:         0       0       0       0       0
  7842 ;;Total ram usage:        0 bytes
  7843 ;; Hardware stack levels used: 1
  7844 ;; Hardware stack levels required when called: 5
  7845 ;; This function calls:
  7846 ;;		_I2C_Master_Wait
  7847 ;; This function is called by:
  7848 ;;		_I2C_Read
  7849 ;; This function uses a non-reentrant model
  7850 ;;
  7851                           
  7852                           
  7853                           ;psect for function _I2C_ACK
  7854  15AB                     _I2C_ACK:
  7855  15AB                     l2044:	
  7856                           ;incstack = 0
  7857                           ; Regs used in _I2C_ACK: [wreg+status,2+status,0+pclath+cstack]
  7858                           
  7859                           
  7860                           ;D:/UVG-IngenieriaElectronica/5to-Semestre/Electronica-Digital-2/mini-02/master.X/_I2C.c
      +                          : 118:   I2C_Master_Wait();
  7861  15AB  160A  118A  25D6  160A  118A  	fcall	_I2C_Master_Wait
  7862  15B0                     l2046:
  7863                           
  7864                           ;D:/UVG-IngenieriaElectronica/5to-Semestre/Electronica-Digital-2/mini-02/master.X/_I2C.c
      +                          : 119:   ACKDT = 0;
  7865  15B0  1683               	bsf	3,5	;RP0=1, select bank1
  7866  15B1  1303               	bcf	3,6	;RP1=0, select bank1
  7867  15B2  1291               	bcf	17,5	;volatile
  7868  15B3                     l2048:
  7869                           
  7870                           ;D:/UVG-IngenieriaElectronica/5to-Semestre/Electronica-Digital-2/mini-02/master.X/_I2C.c
      +                          : 120:   ACKEN = 1;
  7871  15B3  1611               	bsf	17,4	;volatile
  7872  15B4                     l171:
  7873  15B4  0008               	return
  7874  15B5                     __end_of_I2C_ACK:
  7875                           
  7876                           	psect	text30
  7877  1598                     __ptext30:	
  7878 ;; *************** function _I2C_Master_Stop *****************
  7879 ;; Defined at:
  7880 ;;		line 62 in file "D:/UVG-IngenieriaElectronica/5to-Semestre/Electronica-Digital-2/mini-02/master.X/_I2C.c"
  7881 ;; Parameters:    Size  Location     Type
  7882 ;;		None
  7883 ;; Auto vars:     Size  Location     Type
  7884 ;;		None
  7885 ;; Return value:  Size  Location     Type
  7886 ;;                  1    wreg      void 
  7887 ;; Registers used:
  7888 ;;		wreg, status,2, status,0, pclath, cstack
  7889 ;; Tracked objects:
  7890 ;;		On entry : 0/0
  7891 ;;		On exit  : 0/0
  7892 ;;		Unchanged: 0/0
  7893 ;; Data sizes:     COMMON   BANK0   BANK1   BANK3   BANK2
  7894 ;;      Params:         0       0       0       0       0
  7895 ;;      Locals:         0       0       0       0       0
  7896 ;;      Temps:          0       0       0       0       0
  7897 ;;      Totals:         0       0       0       0       0
  7898 ;;Total ram usage:        0 bytes
  7899 ;; Hardware stack levels used: 1
  7900 ;; Hardware stack levels required when called: 5
  7901 ;; This function calls:
  7902 ;;		_I2C_Master_Wait
  7903 ;; This function is called by:
  7904 ;;		_MPU6050_Init
  7905 ;;		_MPU6050_Read
  7906 ;;		_I2C_Read_Func
  7907 ;; This function uses a non-reentrant model
  7908 ;;
  7909                           
  7910                           
  7911                           ;psect for function _I2C_Master_Stop
  7912  1598                     _I2C_Master_Stop:
  7913  1598                     l2024:	
  7914                           ;incstack = 0
  7915                           ; Regs used in _I2C_Master_Stop: [wreg+status,2+status,0+pclath+cstack]
  7916                           
  7917                           
  7918                           ;D:/UVG-IngenieriaElectronica/5to-Semestre/Electronica-Digital-2/mini-02/master.X/_I2C.c
      +                          : 64:     I2C_Master_Wait();
  7919  1598  160A  118A  25D6  160A  118A  	fcall	_I2C_Master_Wait
  7920  159D                     l2026:
  7921                           
  7922                           ;D:/UVG-IngenieriaElectronica/5to-Semestre/Electronica-Digital-2/mini-02/master.X/_I2C.c
      +                          : 65:     SSPCON2bits.PEN = 1;
  7923  159D  1683               	bsf	3,5	;RP0=1, select bank1
  7924  159E  1303               	bcf	3,6	;RP1=0, select bank1
  7925  159F  1511               	bsf	17,2	;volatile
  7926  15A0                     l149:
  7927  15A0  0008               	return
  7928  15A1                     __end_of_I2C_Master_Stop:
  7929                           
  7930                           	psect	text31
  7931  15D6                     __ptext31:	
  7932 ;; *************** function _I2C_Master_Wait *****************
  7933 ;; Defined at:
  7934 ;;		line 32 in file "D:/UVG-IngenieriaElectronica/5to-Semestre/Electronica-Digital-2/mini-02/master.X/_I2C.c"
  7935 ;; Parameters:    Size  Location     Type
  7936 ;;		None
  7937 ;; Auto vars:     Size  Location     Type
  7938 ;;		None
  7939 ;; Return value:  Size  Location     Type
  7940 ;;                  1    wreg      void 
  7941 ;; Registers used:
  7942 ;;		wreg, status,2
  7943 ;; Tracked objects:
  7944 ;;		On entry : 0/0
  7945 ;;		On exit  : 0/0
  7946 ;;		Unchanged: 0/0
  7947 ;; Data sizes:     COMMON   BANK0   BANK1   BANK3   BANK2
  7948 ;;      Params:         0       0       0       0       0
  7949 ;;      Locals:         0       0       0       0       0
  7950 ;;      Temps:          0       0       0       0       0
  7951 ;;      Totals:         0       0       0       0       0
  7952 ;;Total ram usage:        0 bytes
  7953 ;; Hardware stack levels used: 1
  7954 ;; Hardware stack levels required when called: 4
  7955 ;; This function calls:
  7956 ;;		Nothing
  7957 ;; This function is called by:
  7958 ;;		_I2C_Start
  7959 ;;		_I2C_Master_Stop
  7960 ;;		_I2C_Master_Write
  7961 ;;		_I2C_ACK
  7962 ;;		_I2C_NACK
  7963 ;;		_I2C_Master_RepeatedStart
  7964 ;;		_I2C_Master_Read
  7965 ;; This function uses a non-reentrant model
  7966 ;;
  7967                           
  7968                           
  7969                           ;psect for function _I2C_Master_Wait
  7970  15D6                     _I2C_Master_Wait:
  7971  15D6                     l1992:	
  7972                           ;incstack = 0
  7973 ;; hardware stack exceeded
  7974                           ; Regs used in _I2C_Master_Wait: [wreg+status,2]
  7975                           
  7976  15D6                     l134:	
  7977                           ;D:/UVG-IngenieriaElectronica/5to-Semestre/Electronica-Digital-2/mini-02/master.X/_I2C.c
      +                          : 34:     while ((SSPSTAT & 0x04) || (SSPCON2 & 0x1F));
  7978                           
  7979  15D6  1683               	bsf	3,5	;RP0=1, select bank1
  7980  15D7  1303               	bcf	3,6	;RP1=0, select bank1
  7981  15D8  1914               	btfsc	20,2	;volatile
  7982  15D9  2DDB               	goto	u1891
  7983  15DA  2DDC               	goto	u1890
  7984  15DB                     u1891:
  7985  15DB  2DD6               	goto	l134
  7986  15DC                     u1890:
  7987  15DC                     l1994:
  7988  15DC  0811               	movf	17,w	;volatile
  7989  15DD  391F               	andlw	31
  7990  15DE  1D03               	btfss	3,2
  7991  15DF  2DE1               	goto	u1901
  7992  15E0  2DE2               	goto	u1900
  7993  15E1                     u1901:
  7994  15E1  2DD6               	goto	l134
  7995  15E2                     u1900:
  7996  15E2                     l137:
  7997  15E2  0008               	return
  7998  15E3                     __end_of_I2C_Master_Wait:
  7999                           
  8000                           	psect	text32
  8001  165C                     __ptext32:	
  8002 ;; *************** function _isr *****************
  8003 ;; Defined at:
  8004 ;;		line 66 in file "D:/UVG-IngenieriaElectronica/5to-Semestre/Electronica-Digital-2/mini-02/master.X/master.c"
  8005 ;; Parameters:    Size  Location     Type
  8006 ;;		None
  8007 ;; Auto vars:     Size  Location     Type
  8008 ;;		None
  8009 ;; Return value:  Size  Location     Type
  8010 ;;                  1    wreg      void 
  8011 ;; Registers used:
  8012 ;;		wreg, status,2, status,0, pclath, cstack
  8013 ;; Tracked objects:
  8014 ;;		On entry : 0/0
  8015 ;;		On exit  : 0/0
  8016 ;;		Unchanged: 0/0
  8017 ;; Data sizes:     COMMON   BANK0   BANK1   BANK3   BANK2
  8018 ;;      Params:         0       0       0       0       0
  8019 ;;      Locals:         0       0       0       0       0
  8020 ;;      Temps:          3       0       0       0       0
  8021 ;;      Totals:         3       0       0       0       0
  8022 ;;Total ram usage:        3 bytes
  8023 ;; Hardware stack levels used: 1
  8024 ;; Hardware stack levels required when called: 3
  8025 ;; This function calls:
  8026 ;;		_I2C_Write
  8027 ;; This function is called by:
  8028 ;;		Interrupt level 1
  8029 ;; This function uses a non-reentrant model
  8030 ;;
  8031                           
  8032                           
  8033                           ;psect for function _isr
  8034  165C                     _isr:
  8035  165C                     i1l2976:
  8036                           
  8037                           ;D:/UVG-IngenieriaElectronica/5to-Semestre/Electronica-Digital-2/mini-02/master.X/master
      +                          .c: 67:     if(PIR1bits.RCIF) {
  8038  165C  1283               	bcf	3,5	;RP0=0, select bank0
  8039  165D  1303               	bcf	3,6	;RP1=0, select bank0
  8040  165E  1E8C               	btfss	12,5	;volatile
  8041  165F  2E61               	goto	u368_21
  8042  1660  2E62               	goto	u368_20
  8043  1661                     u368_21:
  8044  1661  2E78               	goto	i1l62
  8045  1662                     u368_20:
  8046  1662                     i1l2978:
  8047                           
  8048                           ;D:/UVG-IngenieriaElectronica/5to-Semestre/Electronica-Digital-2/mini-02/master.X/master
      +                          .c: 68:         _rx_data = RCREG;
  8049  1662  081A               	movf	26,w	;volatile
  8050  1663  00F6               	movwf	??_isr
  8051  1664  0876               	movf	??_isr,w
  8052  1665  00F9               	movwf	__rx_data
  8053  1666                     i1l2980:
  8054                           
  8055                           ;D:/UVG-IngenieriaElectronica/5to-Semestre/Electronica-Digital-2/mini-02/master.X/master
      +                          .c: 69:         _lights = _rx_data - 48;
  8056  1666  0879               	movf	__rx_data,w
  8057  1667  3ED0               	addlw	208
  8058  1668  00F6               	movwf	??_isr
  8059  1669  0876               	movf	??_isr,w
  8060  166A  00FA               	movwf	__lights
  8061  166B                     i1l2982:
  8062                           
  8063                           ;D:/UVG-IngenieriaElectronica/5to-Semestre/Electronica-Digital-2/mini-02/master.X/master
      +                          .c: 70:         I2C_Write(0x50, _lights);
  8064  166B  087A               	movf	__lights,w
  8065  166C  00F6               	movwf	??_isr
  8066  166D  0876               	movf	??_isr,w
  8067  166E  00F2               	movwf	I2C_Write@data
  8068  166F  3050               	movlw	80
  8069  1670  160A  118A  2799  160A  118A  	fcall	_I2C_Write
  8070  1675                     i1l2984:
  8071                           
  8072                           ;D:/UVG-IngenieriaElectronica/5to-Semestre/Electronica-Digital-2/mini-02/master.X/master
      +                          .c: 71:         PIR1bits.RCIF = 0;
  8073  1675  1283               	bcf	3,5	;RP0=0, select bank0
  8074  1676  1303               	bcf	3,6	;RP1=0, select bank0
  8075  1677  128C               	bcf	12,5	;volatile
  8076  1678                     i1l62:
  8077  1678  0878               	movf	??_isr+2,w
  8078  1679  008A               	movwf	10
  8079  167A  0E77               	swapf	??_isr+1,w
  8080  167B  0083               	movwf	3
  8081  167C  0EFE               	swapf	btemp,f
  8082  167D  0E7E               	swapf	btemp,w
  8083  167E  0009               	retfie
  8084  167F                     __end_of_isr:
  8085                           
  8086                           	psect	intentry
  8087  0004                     __pintentry:	
  8088                           ;incstack = 0
  8089 ;; hardware stack exceeded
  8090                           ; Regs used in _isr: [wreg+status,2+status,0+pclath+cstack]
  8091                           
  8092  0004                     interrupt_function:
  8093  007E                     saved_w	set	btemp
  8094  0004  00FE               	movwf	btemp
  8095  0005  0E03               	swapf	3,w
  8096  0006  00F7               	movwf	??_isr+1
  8097  0007  080A               	movf	10,w
  8098  0008  00F8               	movwf	??_isr+2
  8099  0009  160A  118A  2E5C   	ljmp	_isr
  8100                           
  8101                           	psect	text33
  8102  1799                     __ptext33:	
  8103 ;; *************** function _I2C_Write *****************
  8104 ;; Defined at:
  8105 ;;		line 143 in file "D:/UVG-IngenieriaElectronica/5to-Semestre/Electronica-Digital-2/mini-02/master.X/master.c"
  8106 ;; Parameters:    Size  Location     Type
  8107 ;;  address         1    wreg     unsigned char 
  8108 ;;  data            1    2[COMMON] unsigned char 
  8109 ;; Auto vars:     Size  Location     Type
  8110 ;;  address         1    5[COMMON] unsigned char 
  8111 ;; Return value:  Size  Location     Type
  8112 ;;                  1    wreg      unsigned char 
  8113 ;; Registers used:
  8114 ;;		wreg, status,2, status,0, pclath, cstack
  8115 ;; Tracked objects:
  8116 ;;		On entry : 0/0
  8117 ;;		On exit  : 0/0
  8118 ;;		Unchanged: 0/0
  8119 ;; Data sizes:     COMMON   BANK0   BANK1   BANK3   BANK2
  8120 ;;      Params:         1       0       0       0       0
  8121 ;;      Locals:         1       0       0       0       0
  8122 ;;      Temps:          2       0       0       0       0
  8123 ;;      Totals:         4       0       0       0       0
  8124 ;;Total ram usage:        4 bytes
  8125 ;; Hardware stack levels used: 1
  8126 ;; Hardware stack levels required when called: 2
  8127 ;; This function calls:
  8128 ;;		_I2C_Master_Start
  8129 ;;		i1_I2C_Master_Stop
  8130 ;;		i1_I2C_Master_Write
  8131 ;; This function is called by:
  8132 ;;		_isr
  8133 ;; This function uses a non-reentrant model
  8134 ;;
  8135                           
  8136                           
  8137                           ;psect for function _I2C_Write
  8138  1799                     _I2C_Write:
  8139                           
  8140                           ;incstack = 0
  8141 ;; hardware stack exceeded
  8142                           ; Regs used in _I2C_Write: [wreg+status,2+status,0+pclath+cstack]
  8143                           ;I2C_Write@address stored from wreg
  8144  1799  00F5               	movwf	I2C_Write@address
  8145  179A                     i1l2916:
  8146                           
  8147                           ;D:/UVG-IngenieriaElectronica/5to-Semestre/Electronica-Digital-2/mini-02/master.X/master
      +                          .c: 144:     I2C_Master_Start();
  8148  179A  160A  118A  2586  160A  118A  	fcall	_I2C_Master_Start
  8149                           
  8150                           ;D:/UVG-IngenieriaElectronica/5to-Semestre/Electronica-Digital-2/mini-02/master.X/master
      +                          .c: 145:     I2C_Master_Write(address);
  8151  179F  0875               	movf	I2C_Write@address,w
  8152  17A0  00F3               	movwf	??_I2C_Write
  8153  17A1  01F4               	clrf	??_I2C_Write+1
  8154  17A2  0873               	movf	??_I2C_Write,w
  8155  17A3  00F0               	movwf	i1I2C_Master_Write@d
  8156  17A4  0874               	movf	??_I2C_Write+1,w
  8157  17A5  00F1               	movwf	i1I2C_Master_Write@d+1
  8158  17A6  160A  118A  25A1  160A  118A  	fcall	i1_I2C_Master_Write
  8159                           
  8160                           ;D:/UVG-IngenieriaElectronica/5to-Semestre/Electronica-Digital-2/mini-02/master.X/master
      +                          .c: 146:     I2C_Master_Write(data);
  8161  17AB  0872               	movf	I2C_Write@data,w
  8162  17AC  00F3               	movwf	??_I2C_Write
  8163  17AD  01F4               	clrf	??_I2C_Write+1
  8164  17AE  0873               	movf	??_I2C_Write,w
  8165  17AF  00F0               	movwf	i1I2C_Master_Write@d
  8166  17B0  0874               	movf	??_I2C_Write+1,w
  8167  17B1  00F1               	movwf	i1I2C_Master_Write@d+1
  8168  17B2  160A  118A  25A1  160A  118A  	fcall	i1_I2C_Master_Write
  8169                           
  8170                           ;D:/UVG-IngenieriaElectronica/5to-Semestre/Electronica-Digital-2/mini-02/master.X/master
      +                          .c: 147:     I2C_Master_Stop();
  8171  17B7  160A  118A  258F  160A  118A  	fcall	i1_I2C_Master_Stop
  8172  17BC                     i1l2918:
  8173                           
  8174                           ;D:/UVG-IngenieriaElectronica/5to-Semestre/Electronica-Digital-2/mini-02/master.X/master
      +                          .c: 148:     _delay((unsigned long)((50)*(8000000/4000.0)));
  8175  17BC  3082               	movlw	130
  8176  17BD  00F4               	movwf	??_I2C_Write+1
  8177  17BE  30DD               	movlw	221
  8178  17BF  00F3               	movwf	??_I2C_Write
  8179  17C0                     u384_27:
  8180  17C0  0BF3               	decfsz	??_I2C_Write,f
  8181  17C1  2FC0               	goto	u384_27
  8182  17C2  0BF4               	decfsz	??_I2C_Write+1,f
  8183  17C3  2FC0               	goto	u384_27
  8184  17C4  2FC5               	nop2
  8185  17C5                     i1l83:
  8186  17C5  0008               	return
  8187  17C6                     __end_of_I2C_Write:
  8188                           
  8189                           	psect	text34
  8190  15A1                     __ptext34:	
  8191 ;; *************** function i1_I2C_Master_Write *****************
  8192 ;; Defined at:
  8193 ;;		line 72 in file "D:/UVG-IngenieriaElectronica/5to-Semestre/Electronica-Digital-2/mini-02/master.X/_I2C.c"
  8194 ;; Parameters:    Size  Location     Type
  8195 ;;  d               2    0[COMMON] unsigned int 
  8196 ;; Auto vars:     Size  Location     Type
  8197 ;;		None
  8198 ;; Return value:  Size  Location     Type
  8199 ;;                  1    wreg      void 
  8200 ;; Registers used:
  8201 ;;		wreg, status,2, status,0, pclath, cstack
  8202 ;; Tracked objects:
  8203 ;;		On entry : 0/0
  8204 ;;		On exit  : 0/0
  8205 ;;		Unchanged: 0/0
  8206 ;; Data sizes:     COMMON   BANK0   BANK1   BANK3   BANK2
  8207 ;;      Params:         2       0       0       0       0
  8208 ;;      Locals:         0       0       0       0       0
  8209 ;;      Temps:          0       0       0       0       0
  8210 ;;      Totals:         2       0       0       0       0
  8211 ;;Total ram usage:        2 bytes
  8212 ;; Hardware stack levels used: 1
  8213 ;; Hardware stack levels required when called: 1
  8214 ;; This function calls:
  8215 ;;		i1_I2C_Master_Wait
  8216 ;; This function is called by:
  8217 ;;		_I2C_Write
  8218 ;; This function uses a non-reentrant model
  8219 ;;
  8220                           
  8221                           
  8222                           ;psect for function i1_I2C_Master_Write
  8223  15A1                     i1_I2C_Master_Write:
  8224  15A1                     i1l2912:	
  8225                           ;incstack = 0
  8226 ;; hardware stack exceeded
  8227                           ; Regs used in i1_I2C_Master_Write: [wreg+status,2+status,0+pclath+cstack]
  8228                           
  8229                           
  8230                           ;D:/UVG-IngenieriaElectronica/5to-Semestre/Electronica-Digital-2/mini-02/master.X/_I2C.c
      +                          : 72: void I2C_Master_Write(unsigned d);D:/UVG-IngenieriaElectronica/5to-Semestre/Electr
      +                          onica-Digital-2/mini-02/master.X/_I2C.c: 73: {;D:/UVG-IngenieriaElectronica/5to-Semestre
      +                          /Electronica-Digital-2/mini-02/master.X/_I2C.c: 74:     I2C_Master_Wait();
  8231  15A1  160A  118A  25C9  160A  118A  	fcall	i1_I2C_Master_Wait
  8232  15A6                     i1l2914:
  8233                           
  8234                           ;D:/UVG-IngenieriaElectronica/5to-Semestre/Electronica-Digital-2/mini-02/master.X/_I2C.c
      +                          : 75:     SSPBUF = d;
  8235  15A6  0870               	movf	i1I2C_Master_Write@d,w
  8236  15A7  1283               	bcf	3,5	;RP0=0, select bank0
  8237  15A8  1303               	bcf	3,6	;RP1=0, select bank0
  8238  15A9  0093               	movwf	19	;volatile
  8239  15AA                     i1l152:
  8240  15AA  0008               	return
  8241  15AB                     __end_ofi1_I2C_Master_Write:
  8242                           
  8243                           	psect	text35
  8244  158F                     __ptext35:	
  8245 ;; *************** function i1_I2C_Master_Stop *****************
  8246 ;; Defined at:
  8247 ;;		line 62 in file "D:/UVG-IngenieriaElectronica/5to-Semestre/Electronica-Digital-2/mini-02/master.X/_I2C.c"
  8248 ;; Parameters:    Size  Location     Type
  8249 ;;		None
  8250 ;; Auto vars:     Size  Location     Type
  8251 ;;		None
  8252 ;; Return value:  Size  Location     Type
  8253 ;;                  1    wreg      void 
  8254 ;; Registers used:
  8255 ;;		wreg, status,2, status,0, pclath, cstack
  8256 ;; Tracked objects:
  8257 ;;		On entry : 0/0
  8258 ;;		On exit  : 0/0
  8259 ;;		Unchanged: 0/0
  8260 ;; Data sizes:     COMMON   BANK0   BANK1   BANK3   BANK2
  8261 ;;      Params:         0       0       0       0       0
  8262 ;;      Locals:         0       0       0       0       0
  8263 ;;      Temps:          0       0       0       0       0
  8264 ;;      Totals:         0       0       0       0       0
  8265 ;;Total ram usage:        0 bytes
  8266 ;; Hardware stack levels used: 1
  8267 ;; Hardware stack levels required when called: 1
  8268 ;; This function calls:
  8269 ;;		i1_I2C_Master_Wait
  8270 ;; This function is called by:
  8271 ;;		_I2C_Write
  8272 ;; This function uses a non-reentrant model
  8273 ;;
  8274                           
  8275                           
  8276                           ;psect for function i1_I2C_Master_Stop
  8277  158F                     i1_I2C_Master_Stop:
  8278  158F                     i1l1806:	
  8279                           ;incstack = 0
  8280 ;; hardware stack exceeded
  8281                           ; Regs used in i1_I2C_Master_Stop: [wreg+status,2+status,0+pclath+cstack]
  8282                           
  8283                           
  8284                           ;D:/UVG-IngenieriaElectronica/5to-Semestre/Electronica-Digital-2/mini-02/master.X/_I2C.c
      +                          : 64:     I2C_Master_Wait();
  8285  158F  160A  118A  25C9  160A  118A  	fcall	i1_I2C_Master_Wait
  8286  1594                     i1l1808:
  8287                           
  8288                           ;D:/UVG-IngenieriaElectronica/5to-Semestre/Electronica-Digital-2/mini-02/master.X/_I2C.c
      +                          : 65:     SSPCON2bits.PEN = 1;
  8289  1594  1683               	bsf	3,5	;RP0=1, select bank1
  8290  1595  1303               	bcf	3,6	;RP1=0, select bank1
  8291  1596  1511               	bsf	17,2	;volatile
  8292  1597                     i1l149:
  8293  1597  0008               	return
  8294  1598                     __end_ofi1_I2C_Master_Stop:
  8295                           
  8296                           	psect	text36
  8297  1586                     __ptext36:	
  8298 ;; *************** function _I2C_Master_Start *****************
  8299 ;; Defined at:
  8300 ;;		line 39 in file "D:/UVG-IngenieriaElectronica/5to-Semestre/Electronica-Digital-2/mini-02/master.X/_I2C.c"
  8301 ;; Parameters:    Size  Location     Type
  8302 ;;		None
  8303 ;; Auto vars:     Size  Location     Type
  8304 ;;		None
  8305 ;; Return value:  Size  Location     Type
  8306 ;;                  1    wreg      void 
  8307 ;; Registers used:
  8308 ;;		wreg, status,2, status,0, pclath, cstack
  8309 ;; Tracked objects:
  8310 ;;		On entry : 0/0
  8311 ;;		On exit  : 0/0
  8312 ;;		Unchanged: 0/0
  8313 ;; Data sizes:     COMMON   BANK0   BANK1   BANK3   BANK2
  8314 ;;      Params:         0       0       0       0       0
  8315 ;;      Locals:         0       0       0       0       0
  8316 ;;      Temps:          0       0       0       0       0
  8317 ;;      Totals:         0       0       0       0       0
  8318 ;;Total ram usage:        0 bytes
  8319 ;; Hardware stack levels used: 1
  8320 ;; Hardware stack levels required when called: 1
  8321 ;; This function calls:
  8322 ;;		i1_I2C_Master_Wait
  8323 ;; This function is called by:
  8324 ;;		_I2C_Write
  8325 ;;		_I2C_Read_Func
  8326 ;; This function uses a non-reentrant model
  8327 ;;
  8328                           
  8329                           
  8330                           ;psect for function _I2C_Master_Start
  8331  1586                     _I2C_Master_Start:
  8332  1586                     i1l1210:	
  8333                           ;incstack = 0
  8334 ;; hardware stack exceeded
  8335                           ; Regs used in _I2C_Master_Start: [wreg+status,2+status,0+pclath+cstack]
  8336                           
  8337                           
  8338                           ;D:/UVG-IngenieriaElectronica/5to-Semestre/Electronica-Digital-2/mini-02/master.X/_I2C.c
      +                          : 41:     I2C_Master_Wait();
  8339  1586  160A  118A  25C9  160A  118A  	fcall	i1_I2C_Master_Wait
  8340  158B                     i1l1212:
  8341                           
  8342                           ;D:/UVG-IngenieriaElectronica/5to-Semestre/Electronica-Digital-2/mini-02/master.X/_I2C.c
      +                          : 42:     SSPCON2bits.SEN = 1;
  8343  158B  1683               	bsf	3,5	;RP0=1, select bank1
  8344  158C  1303               	bcf	3,6	;RP1=0, select bank1
  8345  158D  1411               	bsf	17,0	;volatile
  8346  158E                     i1l140:
  8347  158E  0008               	return
  8348  158F                     __end_of_I2C_Master_Start:
  8349                           
  8350                           	psect	text37
  8351  15C9                     __ptext37:	
  8352 ;; *************** function i1_I2C_Master_Wait *****************
  8353 ;; Defined at:
  8354 ;;		line 32 in file "D:/UVG-IngenieriaElectronica/5to-Semestre/Electronica-Digital-2/mini-02/master.X/_I2C.c"
  8355 ;; Parameters:    Size  Location     Type
  8356 ;;		None
  8357 ;; Auto vars:     Size  Location     Type
  8358 ;;		None
  8359 ;; Return value:  Size  Location     Type
  8360 ;;                  1    wreg      void 
  8361 ;; Registers used:
  8362 ;;		wreg, status,2
  8363 ;; Tracked objects:
  8364 ;;		On entry : 0/0
  8365 ;;		On exit  : 0/0
  8366 ;;		Unchanged: 0/0
  8367 ;; Data sizes:     COMMON   BANK0   BANK1   BANK3   BANK2
  8368 ;;      Params:         0       0       0       0       0
  8369 ;;      Locals:         0       0       0       0       0
  8370 ;;      Temps:          0       0       0       0       0
  8371 ;;      Totals:         0       0       0       0       0
  8372 ;;Total ram usage:        0 bytes
  8373 ;; Hardware stack levels used: 1
  8374 ;; This function calls:
  8375 ;;		Nothing
  8376 ;; This function is called by:
  8377 ;;		_I2C_Master_Start
  8378 ;;		i1_I2C_Master_Stop
  8379 ;;		i1_I2C_Master_Write
  8380 ;; This function uses a non-reentrant model
  8381 ;;
  8382                           
  8383                           
  8384                           ;psect for function i1_I2C_Master_Wait
  8385  15C9                     i1_I2C_Master_Wait:
  8386  15C9                     i1l1092:	
  8387                           ;incstack = 0
  8388 ;; hardware stack exceeded
  8389                           ; Regs used in i1_I2C_Master_Wait: [wreg+status,2]
  8390                           
  8391  15C9                     i1l134:	
  8392                           ;D:/UVG-IngenieriaElectronica/5to-Semestre/Electronica-Digital-2/mini-02/master.X/_I2C.c
      +                          : 34:     while ((SSPSTAT & 0x04) || (SSPCON2 & 0x1F));
  8393                           
  8394  15C9  1683               	bsf	3,5	;RP0=1, select bank1
  8395  15CA  1303               	bcf	3,6	;RP1=0, select bank1
  8396  15CB  1914               	btfsc	20,2	;volatile
  8397  15CC  2DCE               	goto	u38_21
  8398  15CD  2DCF               	goto	u38_20
  8399  15CE                     u38_21:
  8400  15CE  2DC9               	goto	i1l134
  8401  15CF                     u38_20:
  8402  15CF                     i1l1094:
  8403  15CF  0811               	movf	17,w	;volatile
  8404  15D0  391F               	andlw	31
  8405  15D1  1D03               	btfss	3,2
  8406  15D2  2DD4               	goto	u39_21
  8407  15D3  2DD5               	goto	u39_20
  8408  15D4                     u39_21:
  8409  15D4  2DC9               	goto	i1l134
  8410  15D5                     u39_20:
  8411  15D5                     i1l137:
  8412  15D5  0008               	return
  8413  15D6                     __end_ofi1_I2C_Master_Wait:
  8414  007E                     btemp	set	126	;btemp
  8415  007E                     wtemp0	set	126
  8416                           
  8417                           	psect	config
  8418                           
  8419                           ;Config register CONFIG1 @ 0x2007
  8420                           ;	Oscillator Selection bits
  8421                           ;	FOSC = INTRC_NOCLKOUT, INTOSCIO oscillator: I/O function on RA6/OSC2/CLKOUT pin, I/O f
      +                          unction on RA7/OSC1/CLKIN
  8422                           ;	Watchdog Timer Enable bit
  8423                           ;	WDTE = OFF, WDT disabled and can be enabled by SWDTEN bit of the WDTCON register
  8424                           ;	Power-up Timer Enable bit
  8425                           ;	PWRTE = OFF, PWRT disabled
  8426                           ;	RE3/MCLR pin function select bit
  8427                           ;	MCLRE = OFF, RE3/MCLR pin function is digital input, MCLR internally tied to VDD
  8428                           ;	Code Protection bit
  8429                           ;	CP = OFF, Program memory code protection is disabled
  8430                           ;	Data Code Protection bit
  8431                           ;	CPD = OFF, Data memory code protection is disabled
  8432                           ;	Brown Out Reset Selection bits
  8433                           ;	BOREN = OFF, BOR disabled
  8434                           ;	Internal External Switchover bit
  8435                           ;	IESO = OFF, Internal/External Switchover mode is disabled
  8436                           ;	Fail-Safe Clock Monitor Enabled bit
  8437                           ;	FCMEN = OFF, Fail-Safe Clock Monitor is disabled
  8438                           ;	Low Voltage Programming Enable bit
  8439                           ;	LVP = OFF, RB3 pin has digital I/O, HV on MCLR must be used for programming
  8440                           ;	In-Circuit Debugger Mode bit
  8441                           ;	DEBUG = 0x1, unprogrammed default
  8442  2007                     	org	8199
  8443  2007  20D4               	dw	8404
  8444                           
  8445                           ;Config register CONFIG2 @ 0x2008
  8446                           ;	Brown-out Reset Selection bit
  8447                           ;	BOR4V = BOR40V, Brown-out Reset set to 4.0V
  8448                           ;	Flash Program Memory Self Write Enable bits
  8449                           ;	WRT = OFF, Write protection off
  8450  2008                     	org	8200
  8451  2008  3FFF               	dw	16383

Data Sizes:
    Strings     45
    Constant    0
    Data        2
    BSS         2
    Persistent  0
    Stack       0

Auto Spaces:
    Space          Size  Autos    Used
    COMMON           14      9      13
    BANK0            80     79      79
    BANK1            80     29      29
    BANK3            96      0       0
    BANK2            96      0       0

Pointer List with Targets:

    writeString@a	PTR unsigned char  size(1) Largest target is 7
		 -> STR_7(CODE[3]), STR_6(CODE[7]), STR_5(CODE[7]), STR_4(CODE[7]), 
		 -> STR_3(CODE[7]), STR_2(CODE[7]), STR_1(CODE[7]), 


Critical Paths under _main in COMMON

    None.

Critical Paths under _isr in COMMON

    _isr->_I2C_Write
    _I2C_Write->i1_I2C_Master_Write

Critical Paths under _main in BANK0

    _setup->_MPU6050_Init
    _initUART->_BAUDSelect
    _initLCD->_setCmd
    _MPU6050_Init->_I2C_Master_Init
    _I2C_Master_Init->___lldiv
    _clearLCD->_setCmd
    _MPU6050_Read->___fltol
    _writeString->_writeChar
    _setCursor->_setCmd
    ___fltol->___flmul
    ___flmul->___fladd
    ___fldiv->___xxtofl
    ___fladd->___fldiv
    _Temp_Conversion->___awdiv
    ___awdiv->___awmod
    _I2C_Start->_I2C_Master_Write

Critical Paths under _isr in BANK0

    None.

Critical Paths under _main in BANK1

    _main->_MPU6050_Read
    _MPU6050_Read->___fltol
    ___fltol->___flmul

Critical Paths under _isr in BANK1

    None.

Critical Paths under _main in BANK3

    None.

Critical Paths under _isr in BANK3

    None.

Critical Paths under _main in BANK2

    None.

Critical Paths under _isr in BANK2

    None.

Call Graph Tables:

 ---------------------------------------------------------------------------------
 (Depth) Function   	        Calls       Base Space   Used Autos Params    Refs
 ---------------------------------------------------------------------------------
 (0) _main                                                 3     3      0   15594
                                             26 BANK1      3     3      0
                       _MPU6050_Read
                           _clearLCD
                          _setCursor
                              _setup
                        _writeString
 ---------------------------------------------------------------------------------
 (1) _setup                                                0     0      0    3024
                       _MPU6050_Init
                            _initLCD
                           _initUART
 ---------------------------------------------------------------------------------
 (2) _initUART                                             1     1      0      44
                                              3 BANK0      1     1      0
                         _BAUDSelect
 ---------------------------------------------------------------------------------
 (3) _BAUDSelect                                           3     3      0      22
                                              0 BANK0      3     3      0
 ---------------------------------------------------------------------------------
 (2) _initLCD                                              3     3      0      22
                                              3 BANK0      3     3      0
                             _setCmd
 ---------------------------------------------------------------------------------
 (2) _MPU6050_Init                                         3     3      0    2958
                                             22 BANK0      3     3      0
                    _I2C_Master_Init
                    _I2C_Master_Stop
                   _I2C_Master_Write
                          _I2C_Start
 ---------------------------------------------------------------------------------
 (3) _I2C_Master_Init                                      8     4      4     412
                                             14 BANK0      8     4      4
                            ___lldiv
 ---------------------------------------------------------------------------------
 (4) ___lldiv                                             14     6      8     314
                                              0 BANK0     14     6      8
 ---------------------------------------------------------------------------------
 (1) _clearLCD                                             0     0      0      22
                             _setCmd
 ---------------------------------------------------------------------------------
 (1) _MPU6050_Read                                        20    20      0   11897
                                             18 BANK1      8     8      0
                    _I2C_Master_Stop
                   _I2C_Master_Write
                           _I2C_Read
                          _I2C_Start
                    _Temp_Conversion
                            ___fladd
                            ___fldiv
                            ___flmul
                            ___fltol
                           ___xxtofl
                          _setCursor
                             _txfunc
                        _writeString
 ---------------------------------------------------------------------------------
 (1) _writeString                                          3     3      0     343
                                              2 BANK0      3     3      0
                          _writeChar
 ---------------------------------------------------------------------------------
 (1) _setCursor                                            4     3      1     308
                                              3 BANK0      4     3      1
                             _setCmd
 ---------------------------------------------------------------------------------
 (3) _setCmd                                               3     3      0      22
                                              0 BANK0      3     3      0
 ---------------------------------------------------------------------------------
 (2) ___xxtofl                                            14    10      4     398
                                              0 BANK0     14    10      4
 ---------------------------------------------------------------------------------
 (2) ___fltol                                             11     7      4     305
                                             73 BANK0      6     2      4
                                             13 BANK1      5     5      0
                            ___fladd (ARG)
                            ___fldiv (ARG)
                            ___flmul (ARG)
                           ___xxtofl (ARG)
 ---------------------------------------------------------------------------------
 (2) ___flmul                                             26    18      8    2417
                                             60 BANK0     13     5      8
                                              0 BANK1     13    13      0
                          __Umul8_16
                            ___fladd (ARG)
                            ___fldiv (ARG)
                           ___xxtofl (ARG)
 ---------------------------------------------------------------------------------
 (3) __Umul8_16                                            9     7      2     799
                                              0 BANK0      9     7      2
 ---------------------------------------------------------------------------------
 (2) ___fldiv                                             26    18      8    1273
                                             14 BANK0     26    18      8
                           ___xxtofl (ARG)
 ---------------------------------------------------------------------------------
 (2) ___fladd                                             20    12      8    2262
                                             40 BANK0     20    12      8
                            ___fldiv (ARG)
                           ___xxtofl (ARG)
 ---------------------------------------------------------------------------------
 (2) _Temp_Conversion                                     16    14      2    1904
                                             16 BANK0     16    14      2
                            ___awdiv
                            ___awmod
                             ___wmul
                             _txfunc
                          _writeChar
 ---------------------------------------------------------------------------------
 (2) _writeChar                                            2     2      0      22
                                              0 BANK0      2     2      0
 ---------------------------------------------------------------------------------
 (2) _txfunc                                               1     1      0      22
                                              0 BANK0      1     1      0
 ---------------------------------------------------------------------------------
 (3) ___wmul                                               6     2      4     244
                                              0 BANK0      6     2      4
 ---------------------------------------------------------------------------------
 (3) ___awmod                                              7     3      4     600
                                              0 BANK0      7     3      4
 ---------------------------------------------------------------------------------
 (3) ___awdiv                                              9     5      4     604
                                              7 BANK0      9     5      4
                            ___awmod (ARG)
                             ___wmul (ARG)
 ---------------------------------------------------------------------------------
 (3) _I2C_Start                                            3     3      0    1284
                                              2 BANK0      3     3      0
                    _I2C_Master_Wait
                   _I2C_Master_Write
 ---------------------------------------------------------------------------------
 (4) _I2C_Master_Write                                     2     0      2    1262
                                              0 BANK0      2     0      2
                    _I2C_Master_Wait
 ---------------------------------------------------------------------------------
 (2) _I2C_Read                                             3     3      0      45
                                              0 BANK0      3     3      0
                            _I2C_ACK
                           _I2C_NACK
 ---------------------------------------------------------------------------------
 (3) _I2C_NACK                                             0     0      0       0
                    _I2C_Master_Wait
 ---------------------------------------------------------------------------------
 (3) _I2C_ACK                                              0     0      0       0
                    _I2C_Master_Wait
 ---------------------------------------------------------------------------------
 (3) _I2C_Master_Stop                                      0     0      0       0
                    _I2C_Master_Wait
 ---------------------------------------------------------------------------------
 (5) _I2C_Master_Wait                                      0     0      0       0
 ---------------------------------------------------------------------------------
 Estimated maximum stack depth 5
 ---------------------------------------------------------------------------------
 (Depth) Function   	        Calls       Base Space   Used Autos Params    Refs
 ---------------------------------------------------------------------------------
 (6) _isr                                                  3     3      0     194
                                              6 COMMON     3     3      0
                          _I2C_Write
 ---------------------------------------------------------------------------------
 (7) _I2C_Write                                            4     3      1     194
                                              2 COMMON     4     3      1
                   _I2C_Master_Start
                  i1_I2C_Master_Stop
                 i1_I2C_Master_Write
 ---------------------------------------------------------------------------------
 (8) i1_I2C_Master_Write                                   2     0      2      74
                                              0 COMMON     2     0      2
                  i1_I2C_Master_Wait
 ---------------------------------------------------------------------------------
 (8) i1_I2C_Master_Stop                                    0     0      0       0
                  i1_I2C_Master_Wait
 ---------------------------------------------------------------------------------
 (8) _I2C_Master_Start                                     0     0      0       0
                  i1_I2C_Master_Wait
 ---------------------------------------------------------------------------------
 (9) i1_I2C_Master_Wait                                    0     0      0       0
 ---------------------------------------------------------------------------------
 Estimated maximum stack depth 9
 ---------------------------------------------------------------------------------

 Call Graph Graphs:

 _main (ROOT)
   _MPU6050_Read
     _I2C_Master_Stop
       _I2C_Master_Wait
     _I2C_Master_Write
       _I2C_Master_Wait
     _I2C_Read
       _I2C_ACK
         _I2C_Master_Wait
       _I2C_NACK
         _I2C_Master_Wait
     _I2C_Start
       _I2C_Master_Wait
       _I2C_Master_Write
     _Temp_Conversion
       ___awdiv
         ___awmod (ARG)
         ___wmul (ARG)
       ___awmod
       ___wmul
       _txfunc
       _writeChar
     ___fladd
       ___fldiv (ARG)
         ___xxtofl (ARG)
       ___xxtofl (ARG)
     ___fldiv
     ___flmul
       __Umul8_16
       ___fladd (ARG)
       ___fldiv (ARG)
       ___xxtofl (ARG)
     ___fltol
       ___fladd (ARG)
       ___fldiv (ARG)
       ___flmul (ARG)
       ___xxtofl (ARG)
     ___xxtofl
     _setCursor
       _setCmd
     _txfunc
     _writeString
       _writeChar
   _clearLCD
     _setCmd
   _setCursor
   _setup
     _MPU6050_Init
       _I2C_Master_Init
         ___lldiv
       _I2C_Master_Stop
       _I2C_Master_Write
       _I2C_Start
     _initLCD
       _setCmd
     _initUART
       _BAUDSelect
   _writeString

 _isr (ROOT)
   _I2C_Write
     _I2C_Master_Start
       i1_I2C_Master_Wait
     i1_I2C_Master_Stop
       i1_I2C_Master_Wait
     i1_I2C_Master_Write
       i1_I2C_Master_Wait

 Address spaces:
Name               Size   Autos  Total    Cost      Usage
BANK3               60      0       0       9        0.0%
BITBANK3            60      0       0       8        0.0%
SFR3                 0      0       0       4        0.0%
BITSFR3              0      0       0       4        0.0%
BANK2               60      0       0      11        0.0%
BITBANK2            60      0       0      10        0.0%
SFR2                 0      0       0       5        0.0%
BITSFR2              0      0       0       5        0.0%
BANK1               50     1D      1D       7       36.2%
BITBANK1            50      0       0       6        0.0%
SFR1                 0      0       0       2        0.0%
BITSFR1              0      0       0       2        0.0%
BANK0               50     4F      4F       5       98.8%
BITBANK0            50      0       0       4        0.0%
SFR0                 0      0       0       1        0.0%
BITSFR0              0      0       0       1        0.0%
COMMON               E      9       D       1       92.9%
BITCOMMON            E      0       0       0        0.0%
CODE                 0      0       0       0        0.0%
DATA                 0      0      79      12        0.0%
ABS                  0      0      79       3        0.0%
NULL                 0      0       0       0        0.0%
STACK                0      0       0       2        0.0%
EEDATA             100      0       0       0        0.0%


Microchip Technology PIC Macro Assembler V2.32 build 20210201212658 
Symbol Table                                                                                   Mon Mar 07 11:12:45 2022

                ___fldiv@aexp 0047                  ___fldiv@bexp 0046                             pc 0002  
                ___fldiv@sign 003F            __size_of_I2C_Start 001A            __size_of_I2C_Write 002D  
                          _BF 04A0                            l71 08AE                            l80 176C  
                ___awdiv@sign 002D                            fsr 0004           ___wmul@multiplicand 0022  
         __Umul8_16@word_mpld 0026                           l200 15EF                           l203 160F  
                         l131 17FF                           l134 15D6                           l230 165B  
                         l143 163F                           l160 16F8                           l152 15C8  
                         l137 15E2                           l241 15F3                           l209 16CA  
                         l410 098D                           l234 1771                           l171 15B4  
                         l244 15FD                           l236 177D                           l149 15A0  
                         l165 1712                           l174 15BE                           l238 1798  
                         l167 1718                           l191 1625                           l168 171A  
                         l282 0C4B                           l540 085C                           l188 0925  
                         l701 0FD1                           l197 16A4                           l285 0D77  
                         l374 16D9                           l710 0FFF                           l527 09F6  
                         l376 16F1                           l288 0AAC                           l560 07F8  
                         l570 07F8                           l723 05DC                           l820 0B32  
                         l709 0FF3                           l725 075C                           l821 0B3E  
                         l813 0B16                           l671 0E82                           l567 07E3  
                         l807 0AD1                           l680 0FFF                           l673 0E59  
                         l745 0740                           l809 0B68                           l667 0DDB  
                         l747 0750                           l739 06CE                           l763 057F  
                         l692 0F71                           l782 1731                           l775 0561  
                         l688 0F4D                           l784 1743                           l769 04B3  
                         l698 0F93                           _GIE 005F                           _SEN 0488  
             __end_of_I2C_ACK 15B5                           _isr 165C                           fsr0 0004  
                ___awmod@sign 0026           __size_of_BAUDSelect 002C                  ___flmul@aexp 00A5  
                ___flmul@bexp 00A6                  ___flmul@sign 00A0                  ___flmul@temp 00AB  
                ___flmul@prod 00A7                  ___fltol@exp1 006E                          l2000 0926  
                        l2010 0955                          l2002 0938                          l2100 16D3  
                        l2012 0967                          l2004 093B                          l2020 0985  
                        l2110 098E                          l2102 16E0                          l2014 0975  
                        l2006 0948                          l2030 17CA                          l2024 1598  
                        l2040 1629                          l2120 09A0                          l2112 0991  
                        l2104 16E7                          l2200 173A                          l2016 0976  
                        l2008 094C                          l2032 17CD                          l3000 0888  
                        l2026 159D                          l2050 15B5                          l2042 162E  
                        l2130 09B4                          l2122 09A5                          l2114 0995  
                        l2106 16ED                          l2202 173F                          l2210 168C  
                        l2018 097F                          l2034 17FC                          l3010 08A7  
                        l3002 088D                          l2044 15AB                          l2052 15BA  
                        l2140 09DA                          l2132 09BB                          l2124 09A9  
                        l2116 099A                          l2060 1616                          l2212 1693  
                        l2220 16AA                          l2036 17FD                          l2028 17C6  
                        l2300 0BFA                          l3004 0894                          l3012 08AE  
                        l2046 15B0                          l2054 15BD                          l2150 09F2  
                        l2142 09DB                          l2134 09BF                          l2126 09AB  
                        l2118 099C                          l2070 160C                          l2062 1622  
                        l2214 1699                          l2206 1682                          l2222 16B7  
                        l2038 17FE                          l2310 0C25                          l2302 0C04  
                        l2230 08D0                          l3006 089A                          l2048 15B3  
                        l2320 16F5                          l2144 09E2                          l2136 09C3  
                        l2128 09B1                          l2160 080E                          l2064 1601  
                        l2400 0D8A                          l2056 1613                          l2216 169E  
                        l2208 1687                          l2224 16BD                          l2312 0C2A  
                        l2304 0C09                          l2240 0904                          l2232 08E0  
                        l2072 1770                          l3008 08A1                          l2330 1719  
                        l2322 16FC                          l2138 09D4                          l2146 09E8  
                        l2170 0822                          l2162 0810                          l2154 0802  
                        l2066 1602                          l2402 0D8F                          l2410 0D9F  
                        l2058 1614                          l2218 16A8                          l2314 0C30  
                        l2306 0C0F                          l2242 090A                          l2234 08E6  
                        l2226 08C0                          l2074 1777                          l2250 1646  
                        l2324 1702                          l2148 09ED                          l2180 0841  
                        l2172 0829                          l2164 0814                          l2156 0805  
                        l2092 15F3                          l2068 1604                          l2340 0A70  
                        l2500 0EAF                          l2420 0DB9                          l2412 0DA7  
                        l2404 0D94                          l2316 0C3B                          l2308 0C1A  
                        l2244 0910                          l2236 08F7                          l2228 08C6  
                        l2076 177B                          l2084 1788                          l2260 1658  
                        l2252 164E                          l2326 1707                          l2182 0848  
                        l2174 082D                          l2166 0819                          l2158 0809  
                        l2094 15F9                          l2350 0A96                          l2342 0A78  
                        l2334 09F7                          l2510 0EC3                          l2502 0EB3  
                        l2430 0DD0                          l2422 0DBD                          l2414 0DAC  
                        l2406 0D9C                          l2318 0C46                          l2270 0B78  
                        l2246 0916                          l2238 08FE                          l2078 1783  
                        l2262 1659                          l2254 1651                          l2328 170D  
                        l2176 0831                          l2168 081F                          l2184 084E  
                        l2096 16CB                          l2352 0A9C                          l2344 0A7E  
                        l2336 0A60                          l2520 0F2B                          l2512 0ECC  
                        l2504 0EBC                          l2440 0DE9                          l2432 0DD1  
                        l2424 0DBE                          l2416 0DB2                          l2408 0D9D  
                        l2600 05A4                          l2192 171E                          l2280 0BA8  
                        l2272 0B87                          l2264 165A                          l2256 1654  
                        l2248 1643                          l2186 0853                          l2178 083B  
                        l2098 16CF                          l2354 0AA4                          l2346 0A86  
                        l2338 0A68                          l2522 0F30                          l2506 0EBE  
                        l2514 0ED1                          l2450 0DFD                          l2442 0DED  
                        l2426 0DC3                          l2434 0DD3                          l2418 0DB3  
                        l2610 05BA                          l2602 05A5                          l2194 1720  
                        l2370 07A7                          l2362 0777                          l2290 0BCF  
                        l2282 0BAE                          l2274 0B8D                          l2258 1655  
                        l2188 0858                          l2348 0A8E                          l2540 0F78  
                        l2532 0F63                          l2516 0EE7                          l2524 0F3F  
                        l2508 0EC2                          l2460 0E11                          l2452 0E01  
                        l2444 0DF1                          l2436 0DE1                          l2428 0DC8  
                        l2700 06E6                          l2620 05D1                          l2612 05BE  
                        l2604 05A7                          l2196 1727                          l2372 07AB  
                        l2380 07C9                          l2364 079C                          l2356 075D  
                        l2292 0BDA                          l2284 0BB9                          l2276 0B98  
                        l2268 0B69                          l2550 0F86                          l2542 0F7A  
                        l2534 0F6C                          l2526 0F55                          l2518 0F25  
                        l2462 0E15                          l2454 0E05                          l2446 0DF5  
                        l2438 0DE5                          l2470 0E25                          l2710 0724  
                        l2702 06EA                          l2630 05F4                          l2622 05D2  
                        l2614 05BF                          l2606 05AF                          l2198 172B  
                        l2390 07ED                          l2366 079D                          l2358 076E  
                        l2294 0BE4                          l2286 0BC4                          l2278 0BA3  
                        l3086 1790                          l2560 0F9D                          l2552 0F8A  
                        l2544 0F7F                          l2536 0F70                          l2528 0F5A  
                        l2480 0E68                          l2472 0E26                          l2464 0E19  
                        l2456 0E09                          l2448 0DF9                          l2392 0D78  
                        l2720 074A                          l2712 0733                          l2704 0703  
                        l2640 060B                          l2616 05C4                          l2624 05D4  
                        l2608 05B4                          l2800 02F7                          l2368 07A5  
                        l2296 0BE9                          l2288 0BC9                          l2570 0FDB  
                        l2562 0FAB                          l2554 0F90                          l2538 0F75  
                        l2546 0F81                          l2490 0E86                          l2482 0E6C  
                        l2474 0E3D                          l2466 0E1D                          l2458 0E0D  
                        l2394 0D7F                          l2722 074C                          l2714 0737  
                        l2706 0709                          l2650 0637                          l2642 061D  
                        l2626 05E4                          l2634 05FD                          l2618 05C9  
                        l2810 042F                          l2802 0344                          l2730 002A  
                        l2386 07D0                          l2378 07B3                          l2298 0BEF  
                        l2580 0FEF                          l2572 0FE3                          l2564 0FAF  
                        l2548 0F85                          l2492 0E8B                          l2484 0E6D  
                        l2476 0E5D                          l2468 0E21                          l2396 0D85  
                        l2716 073F                          l2708 0716                          l2652 063C  
                        l2660 065C                          l2644 0625                          l2636 0602  
                        l2628 05F0                          l2820 046C                          l2812 043E  
                        l2804 035C                          l2740 0049                          l2732 0034  
                        l2388 07E8                          l2900 0B40                          l2582 0FFA  
                        l2574 0FE8                          l2566 0FCD                          l2558 0F98  
                        l2486 0E76                          l2478 0E66                          l2398 0D89  
                        l2718 0746                          l2670 0687                          l2662 066E  
                        l2654 064E                          l2646 062D                          l2590 058D  
                        l2830 048C                          l2822 047B                          l2814 0456  
                        l2806 03A9                          l2750 0071                          l2742 0053  
                        l2734 003A                          l2902 0B56                          l2584 0FFE  
                        l2576 0FE9                          l2568 0FD6                          l2496 0E94  
                        l2488 0E7A                          l2680 069F                          l2672 068F  
                        l2664 066F                          l2656 0652                          l2648 0635  
                        l2592 0591                          l2840 04CD                          l2832 04AE  
                        l2816 0465                          l2824 0483                          l2808 03E7  
                        l2760 0090                          l2752 0077                          l2744 0056  
                        l2736 003D                          l2728 0021                          l2904 0B5B  
                        l2920 1744                          l2578 0FED                          l2498 0EAB  
                        l2690 06B7                          l2682 06A8                          l2674 0691  
                        l2666 067D                          l2658 0653                          l2594 0592  
                        l2586 0580                          l2850 0524                          l2842 04D1  
                        l2826 0487                          l2818 046B                          l2762 0093  
                        l2754 007A                          l2746 0060                          l2738 0044  
                        l2906 0B5F                          l2930 1756                          l2922 174B  
                        l2692 06CB                          l2676 069A                          l2684 06AE  
                        l2668 0681                          l2596 0597                          l2588 0587  
                        l2860 0555                          l2852 0533                          l2844 0506  
                        l2836 04BA                          l2828 0488                          l2780 014E  
                        l2772 00B4                          l2764 009D                          l2756 0081  
                        l2748 0067                          l2908 0B60                          l2940 1761  
                        l2932 1757                          l2924 174C                          l2686 06B2  
                        l2678 069E                          l2598 059C                          l2862 0556  
                        l2854 053D                          l2838 04BF                          l2846 050C  
                        l2790 021B                          l2782 0196                          l2774 00CC  
                        l2766 00A4                          l2758 0086                          l2870 0AB5  
                        l2950 0C74                          l2942 1767                          l2934 1758  
                        l2926 1751                          l1992 15D6                          l2696 06D3  
                        l2688 06B3                          l2864 0569                          l2856 053F  
                        l2848 0519                          l2792 0250                          l2784 01C6  
                        l2776 00E9                          l2768 00A9                          l2880 0AE2  
                        l2872 0AB9                          l2960 0CC1                          l2952 0C80  
                        l2944 15E3                          l2936 1759                          l2928 1755  
                        l1994 15DC                          l2698 06D8                          l2858 0551  
                        l2794 0268                          l2786 01F6                          l2778 011E  
                        l2890 0B0D                          l2882 0AE7                          l2874 0AC9  
                        l2970 0D5A                          l2962 0CCD                          l2954 0C8C  
                        l2946 0C4C                          l2938 175C                          l1996 15BF  
                        l2796 029D                          l2788 0205                          l2892 0B1D  
                        l2884 0AF4                          l2876 0AD9                          l2868 0AB0  
                        l2972 0D6B                          l2964 0D49                          l2956 0CA9  
                        l2948 0C68                          l1998 15C4                          l2798 02C2  
                        l2894 0B28                          l2886 0AFB                          l2974 0D71  
                        l2966 0D4D                          l2958 0CB5                          l2990 0867  
                        l2896 0B2C                          l2888 0AFF                          l2968 0D54  
                        l2992 086C                          l2898 0B36                          l2994 0876  
                        l2986 085D                          l2996 087C                          l2988 0862  
                        l2998 0881                          ?_isr 0070                          STR_1 1029  
                        STR_2 1014                          STR_3 100D                          STR_4 1022  
                        STR_5 101B                          STR_6 1006                          STR_7 1030  
                        u2000 16D3                          u2001 16D2                          u2100 09D4  
                        u2101 09D3                          u2030 16ED                          u2031 16EC  
                        u2015 16DA                          u2120 09E8                          u2040 0995  
                        u2121 09E7                          u2105 09D0                          u2041 0994  
                        u2025 16E1                          u2130 09ED                          u2050 09A0  
                        u2210 084E                          u3010 066E                          u2131 09EC  
                        u2115 09DC                          u2051 099F                          u2211 084D  
                        u3011 066D                          u2300 1707                          u2060 09B1  
                        u2220 0853                          u2140 0809                          u3100 06D2  
                        u3020 0687                          u2301 1706                          u2061 09B0  
                        u2221 0852                          u2205 0842                          u2141 0808  
                        u3101 06D1                          u3021 0686                          u3005 0655  
                        u2310 1718                          u2150 0814                          u3110 06D8  
                        u3030 068F                          u2230 172B                          u2311 1717  
                        u2151 0813                          u3111 06D7                          u3031 068E  
                        u3015 066A                          u2231 172A                          u2080 09C3  
                        u2160 081F                          u3120 06EA                          u3200 0077  
                        u2400 07E8                          u2320 076E                          u2081 09C2  
                        u2161 081E                          u3121 06E9                          u3201 0076  
                        u2401 07E7                          u2321 076D                          u3130 06F9  
                        u3050 069E                          u2250 173F                          u3210 0081  
                        u2410 07ED                          u2330 0793                          u2075 09B5  
                        u3051 069D                          u2251 173E                          u3211 0080  
                        u2411 07EC                          u2180 0831                          u2500 0DE5  
                        u2420 0D89                          u3140 0716                          u3220 0086  
                        u2340 07AB                          u2260 1687                          u2181 0830  
                        u2501 0DE4                          u2421 0D88                          u3141 0715  
                        u3045 0693                          u2245 1732                          u3301 0236  
                        u3221 0085                          u2341 07AA                          u2261 1686  
                        u2190 083B                          u2510 0E3D                          u2430 0D8F  
                        u3150 0733                          u3070 06B2                          u3302 0241  
                        u3230 00A4                          u2350 07B2                          u2270 1699  
                        u2095 09C4                          u2191 083A                          u2175 0823  
                        u2511 0E3C                          u2431 0D8E                          u3151 0732  
                        u3135 06F4                          u3071 06B1                          u3311 0283  
                        u3303 024C                          u3231 00A3                          u2351 07B1  
                        u2335 078E                          u2271 1698                          u2520 0E48  
                        u2440 0D94                          u3160 074A                          u3080 06B7  
                        u3312 028E                          u3240 00A9                          u2280 16CA  
                        u2601 0E9D                          u2521 0E46                          u2441 0D93  
                        u3161 0749                          u3145 0712                          u3081 06B6  
                        u3065 06A1                          u3313 0299                          u3241 00A8  
                        u2281 16C9                          u2290 16FC                          u2610 0EAF  
                        u2602 0EA4                          u2530 0E49                          u2450 0DB2  
                        u3090 06CB                          u3170 003A                          u2370 07C8  
                        u2291 16FB                          u2195 0837                          u2611 0EAE  
                        u2603 0EAB                          u2515 0E39                          u2451 0DB1  
                        u3155 072F                          u3091 06CA                          u3331 02DD  
                        u3251 0134                          u3171 0039                          u2371 07C7  
                        u1900 15E2                          u2700 0F5A                          u2620 0EB3  
                        u2540 0E5D                          u2460 0DBD                          u3500 04EE  
                        u3420 046B                          u3332 02E8                          u3252 013F  
                        u3180 0044                          u2380 07CF                          u1901 15E1  
                        u2701 0F59                          u2621 0EB2                          u2541 0E5C  
                        u2461 0DBC                          u3421 046A                          u3405 0433  
                        u3341 032A                          u3333 02F3                          u3325 02A1  
                        u3261 0164                          u3253 014A                          u3181 0043  
                        u2381 07CE                          u2365 07B4                          u2630 0EC2  
                        u2550 0E6C                          u2470 0DC3                          u3510 0519  
                        u3342 0335                          u3262 016F                          u3190 0049  
                        u1910 0938                          u2631 0EC1                          u2551 0E6B  
                        u2471 0DC2                          u3511 0518                          u3415 045A  
                        u3351 0377                          u3343 0340                          u3271 01AC  
                        u3263 017A                          u3191 0048                          u1911 0937  
                        u2800 0FAF                          u2720 0F70                          u2480 0DC8  
                        u3520 0533                          u3440 0487                          u3360 03BB  
                        u3352 0382                          u3272 01B7                          u3600 0B1C  
                        u2801 0FAE                          u2721 0F6F                          u2481 0DC7  
                        u3521 0532                          u3505 04E9                          u3441 0486  
                        u3353 038D                          u3281 01DC                          u3273 01C2  
                        u3601 0B1B                          u2810 0FBE                          u2730 0F75  
                        u2650 0EE7                          u2570 0E82                          u2490 0DE1  
                        u3530 0555                          u3450 048C                          u3282 01E7  
                        u1930 094C                          u2731 0F74                          u2715 0F65  
                        u2651 0EE6                          u2571 0E81                          u2491 0DE0  
                        u3531 0554                          u3515 0515                          u3451 048B  
                        u3435 0470                          u3371 03CD                          u3283 01F2  
                        u2395 07D4                          u1931 094B                          u2820 0FCD  
                        u2740 0F7F                          u2580 0E86                          u2900 059C  
                        u3460 04AE                          u3380 0403                          u3372 03D8  
                        u3620 0B2C                          u3540 0AB5                          u3700 088D  
                        u2821 0FCC                          u2741 0F7E                          u2661 0EFE  
                        u2653 0EE3                          u2645 0EC5                          u2581 0E85  
                        u2565 0E6F                          u2901 059B                          u3525 052F  
                        u3461 04AD                          u3373 03E3                          u3365 03B6  
                        u3621 0B2B                          u3541 0AB4                          u1925 093D  
                        u3701 088C                          u2830 0FD6                          u2750 0F85  
                        u2670 0F12                          u2662 0EFF                          u2590 0E8B  
                        u2910 05BE                          u3470 04B9                          u3630 0B32  
                        u3550 0AB9                          u1950 0967                          u3710 089A  
                        u2831 0FD5                          u2815 0FB9                          u2751 0F84  
                        u2671 0F13                          u2663 0F04                          u2591 0E8A  
                        u2911 05BD                          u3471 04B8                          u3391 0415  
                        u3295 01FA                          u3631 0B31                          u3615 0B21  
                        u3551 0AB8                          u1951 0966                          u3711 0899  
                        u2840 0FDB                          u2760 0F8A                          u2680 0F30  
                        u2672 0F18                          u2664 0F05                          u2920 05C4  
                        u3480 04BF                          u3392 0420                          u3640 0B36  
                        u3560 0AD9                          u3720 08A7                          u2841 0FDA  
                        u2761 0F89                          u2681 0F2F                          u2673 0F19  
                        u2665 0F0A                          u2921 05C3                          u3481 04BE  
                        u3393 042B                          u3385 03FE                          u3641 0B35  
                        u3561 0AD8                          u1945 094E                          u3721 08A6  
                        u1890 15DC                          u2850 0FE8                          u2770 0F90  
                        u2690 0F55                          u2666 0F0B                          u2930 05C9  
                        u3490 04D1                          u3650 0B4B                          u1970 0985  
                        u1891 15DB                          u2851 0FE7                          u2771 0F8F  
                        u2691 0F54                          u2931 05C8                          u3491 04D0  
                        u1971 0984                          u1955 0963                          _PEIE 005E  
                        u2860 0FED                          u2780 0F97                          u2940 05E4  
                        u3660 0B5B                          u3580 0AFA                          u1980 17DD  
                        u2861 0FEC                          u2781 0F96                          u2941 05E3  
                        u3661 0B5A                          u3581 0AF9                          u1965 0977  
                        u1990 15F9                          u2870 0FFE                          u2790 0F9D  
                        u2950 0602                          u3670 0B5F                          u1991 15F8  
                        u2871 0FFD                          u2791 0F9C                          u2951 0601  
                        u3671 0B5E                          u3655 0B46                          u3575 0AEC  
                        u3807 091E                          u2960 063C                          u2880 0591  
                        u2961 063B                          u2881 0590                          u1985 17D8  
                        u3817 0B71                          u2890 0597                          u3690 0881  
                        u2891 0596                          u3595 0B0E                          u3827 161D  
                        u3691 0880                          _RCEN 048B                          u3837 1609  
                        u3757 08B6                          i1l62 1678                          u2990 0652  
                        u2991 0651                          u2975 063E                          u3767 08CC  
                        u2985 0647                          u3777 08DC                          i1l83 17C5  
                        u3787 08EC                          u3797 08FB              __end_of_I2C_NACK 15BF  
                        _main 085D                          _sign 007B              __end_of_I2C_Read 171B  
                        btemp 007E                          start 000C               ___fldiv@new_exp 0040  
                       ??_isr 0076              ?_I2C_Master_Init 002E              ?_I2C_Master_Wait 0070  
            ?_I2C_Master_Stop 0070                 ___fltol@sign1 006D               __end_of___fladd 1000  
                       ?_main 0070                         _ACKEN 048C                         _ACKDT 048D  
             __end_of___fldiv 075D               __end_of___awdiv 09F7               __end_of___awmod 085D  
             __end_of___flmul 0580               __end_of___fltol 07F9                         _ANSEL 0188  
             __end_of___lldiv 098E               ___awdiv@divisor 0027                         i1l140 158E  
                       i1l134 15C9                         i1l152 15AA                         i1l137 15D5  
                       i1l149 1597               ___awdiv@counter 002C                         _RCREG 001A  
                       _SPBRG 0099                         _PORTA 0005                         _PORTD 0008  
                       u38_20 15CF                         u38_21 15CE                         u39_20 15D5  
                       u39_21 15D4                         _TRISA 0085                         _TRISD 0088  
                       _SSPIE 0463                         _SSPIF 0063                         _TXREG 0019  
                 _writeString 16A5               __end_of_initLCD 0926                 ?_MPU6050_Init 0070  
               ?_MPU6050_Read 0070                         _setup 1744             __end_of_I2C_Start 1640  
           __end_of_I2C_Write 17C6                         pclath 000A                         status 0003  
                       wtemp0 007E               __initialization 000F   Temp_Conversion@_temp_tenths 003E  
                __end_of_main 08C0                     ??_I2C_ACK 0020                        ??_main 00BA  
Temp_Conversion@_write_tenths 0038             ?_I2C_Master_Start 0070             ?_I2C_Master_Write 0020  
              ??_MPU6050_Init 0036                ??_MPU6050_Read 00B2            ??_I2C_Master_Start 0070  
          ??_I2C_Master_Write 0022              ___awdiv@dividend 0029               _Temp_Conversion 09F7  
                      ?_setup 0070                        _ANSELH 0189                        i1l1210 1586  
                      i1l1212 158B                        i1l1092 15C9                        i1l1094 15CF  
                      i1l1806 158F                        i1l1808 1594                        i1l2912 15A1  
                      i1l2914 15A6                        i1l2916 179A                        i1l2918 17BC  
                      i1l2980 1666                        i1l2982 166B                        i1l2984 1675  
                      i1l2976 165C                        i1l2978 1662                        u368_20 1662  
                      u368_21 1661                        u384_27 17C0                        _SPBRGH 009A  
                      _SSPADD 0093                        _TRISC3 043B                        _TRISC4 043C  
                      _SSPCON 0014                        _SSPBUF 0013              __end_of___xxtofl 0B69  
            __end_of_clearLCD 15F0                  ??_BAUDSelect 0020              I2C_Read@ACK_NACK 0021  
                   ??___fladd 0050                        ___wmul 16CB                     ??___fldiv 0036  
                   ??___awdiv 002B                     ??___awmod 0024                     ??___flmul 0064  
                   ??___fltol 00AD                     ??___lldiv 0028              __end_of_initUART 165C  
                      _setCmd 1610              ___awdiv@quotient 002E               ___awmod@divisor 0020  
             ___awmod@counter 0025                        _txfunc 15F0                     ?_I2C_NACK 0070  
                   ??_initLCD 0023   __size_ofi1_I2C_Master_Write 000A                  __pdataCOMMON 007B  
                   ?_I2C_Read 0070            __size_of__Umul8_16 0029                        saved_w 007E  
          __end_of_BAUDSelect 1799                  ___xxtofl@arg 002A                  ___xxtofl@exp 0029  
                ___xxtofl@val 0020       __end_of__initialization 001D                    ___fltol@f1 0069  
                initUART@freq 0023                __pcstackCOMMON 0070                 __end_of_setup 176D  
 Temp_Conversion@_write_units 003A                    ??_I2C_NACK 0020       __end_of_Temp_Conversion 0AAD  
                  ??_I2C_Read 0020                       ??_setup 0039           i1I2C_Master_Write@d 0070  
                I2C_Read@Data 0022             __end_of__Umul8_16 1744                    __pmaintext 085D  
        __end_of_MPU6050_Init 0C4C          __end_of_MPU6050_Read 0D78                       ?___wmul 0020  
          __size_of_setCursor 0026                    __pintentry 0004                       _I2C_ACK 15AB  
                     ?_setCmd 0070                       ?_txfunc 0070                     ?___xxtofl 0020  
                ?_writeString 0070                     ?_clearLCD 0070                       _SSPCON2 0091  
                     _SSPSTAT 0094                    __stringtab 1000                     ?_initUART 0070  
                I2C_Start@add 0024            __size_of_writeChar 0012                     _I2C_Start 1626  
                   _I2C_Write 1799                       ___fladd 0D78                       ___fldiv 0580  
                     ___awdiv 098E                       ___awmod 0802                       ___flmul 0021  
                     ___fltol 075D                       ___lldiv 0926               __size_of___wmul 0027  
                     __lights 007A               __size_of_setCmd 0016                       __ptext1 1744  
                     __ptext2 1640                       __ptext3 176D                       __ptext4 08C0  
                     __ptext5 0B69                       __ptext6 17C6                       __ptext7 0926  
                     __ptext8 15E3                       __ptext9 0C4C             i1_I2C_Master_Wait 15C9  
           i1_I2C_Master_Stop 158F                       _initLCD 08C0               __size_of_txfunc 000E  
                __size_of_isr 0023              ?_Temp_Conversion 0030                    ??___xxtofl 0024  
          ?i1_I2C_Master_Wait 0070              ___awmod@dividend 0022            ?i1_I2C_Master_Stop 0070  
                  ??_clearLCD 0023      __size_of_I2C_Master_Init 003A      __size_of_I2C_Master_Wait 000D  
    __size_of_I2C_Master_Stop 0009          end_of_initialization 001D             __end_of_setCursor 16A5  
         ??i1_I2C_Master_Wait 0070           ??i1_I2C_Master_Stop 0070                    ??_initUART 0023  
                     setCmd@a 0022                    ?_I2C_Start 0070                    ?_I2C_Write 0072  
   __size_of_I2C_Master_Start 0009     __size_of_I2C_Master_Write 000A               ___lldiv@divisor 0020  
             ___lldiv@counter 002D              I2C_Write@address 0075                     _RCSTAbits 0018  
            I2C_Master_Init@c 002E     __end_ofi1_I2C_Master_Wait 15D6     __end_ofi1_I2C_Master_Stop 1598  
                   _PORTBbits 0006             __end_of_writeChar 1610                   ___fladd@grs 005B  
               ___xxtofl@sign 0028                     _TRISBbits 0086             __size_of_I2C_NACK 000A  
                   _TRISCbits 0087             __size_of_I2C_Read 0029                   ___fldiv@grs 0042  
                 ___fldiv@rem 003B                  writeString@a 0024                  writeString@i 0023  
                 ___flmul@grs 00A1                     _TXSTAbits 0098         __size_of_MPU6050_Init 00E3  
       __size_of_MPU6050_Read 012C                __end_of___wmul 16F2                 __pidataCOMMON 07F9  
                 _BAUDCTLbits 0187    __end_ofi1_I2C_Master_Write 15AB                __end_of_setCmd 1626  
              __end_of_txfunc 15FE           start_initialization 000F                 MPU6050_Read@T 00B6  
               MPU6050_Read@t 00B8                   __end_of_isr 167F          __size_of_writeString 0026  
                _MPU6050_Init 0B69                  _MPU6050_Read 0C4C             ??_I2C_Master_Init 0032  
           ??_I2C_Master_Wait 0020             ??_I2C_Master_Stop 0020                   ??_I2C_Start 0022  
                 ??_I2C_Write 0073                      ??___wmul 0024                     __Umul8_16 171B  
                    ?_I2C_ACK 0070    __size_ofi1_I2C_Master_Wait 000D    __size_ofi1_I2C_Master_Stop 0009  
                    ??_setCmd 0020                      ??_txfunc 0020                     ___fladd@a 004C  
                   ___fladd@b 0048                     ___fldiv@a 002E                     ___fldiv@b 0032  
                   ___flmul@a 0060                     ___flmul@b 005C                   __pbssCOMMON 0079  
                   ___latbits 0002                 __pcstackBANK0 0020                 __pcstackBANK1 00A0  
           __size_of___xxtofl 00BC             __size_of_clearLCD 000D             __size_of_initUART 001C  
            _I2C_Master_Start 1586              _I2C_Master_Write 15BF                      ?___fladd 0048  
                    ?___fldiv 002E                      ?___awdiv 0027                      ?___awmod 0020  
                    ?___flmul 005C                      ?___fltol 0069                      ?___lldiv 0020  
                  ?__Umul8_16 0020                    setCursor@a 0026                    setCursor@x 0025  
                  setCursor@y 0023                     __pstrings 1000                      _I2C_NACK 15B5  
                    ?_initLCD 0070                      _I2C_Read 16F2                __size_of_setup 0029  
           interrupt_function 0004                ___wmul@product 0024                     _setCursor 167F  
                    _PIE1bits 008C                      _PIR1bits 000C              __size_of_I2C_ACK 000A  
                 __stringbase 1005             ___wmul@multiplier 0020                     _writeChar 15FE  
  Temp_Conversion@_temp_units 0036      __size_of_Temp_Conversion 00B6                    ?_setCursor 0023  
        Temp_Conversion@_temp 0030                    _BAUDSelect 176D                 I2C_Write@data 0072  
                 ??__Umul8_16 0022              __size_of___fladd 0288              __size_of___fldiv 01DD  
            __size_of___awdiv 0069              __size_of___awmod 005B              __size_of___flmul 055F  
            __size_of___fltol 009C              __size_of___lldiv 0068            __end_of__stringtab 1006  
             _I2C_Master_Init 17C6              __size_of_initLCD 0066                      ___xxtofl 0AAD  
             _I2C_Master_Wait 15D6               _I2C_Master_Stop 1598                      _clearLCD 15E3  
                  ?_writeChar 0070                      __ptext10 16A5                      __ptext11 167F  
                    __ptext20 15FE                      __ptext12 1610                      __ptext21 15F0  
                    __ptext13 0AAD                      __ptext30 1598                      __ptext22 16CB  
                    __ptext14 075D                      __ptext31 15D6                      __ptext23 0802  
                    __ptext15 0021                      __ptext32 165C                      __ptext24 098E  
                    __ptext16 171B                      __ptext33 1799                      __ptext25 1626  
                    __ptext17 0580                      __ptext34 15A1                      __ptext26 15BF  
                    __ptext18 0D78                      __ptext35 158F                      __ptext27 16F2  
                    __ptext19 09F7                      __ptext36 1586                      __ptext28 15B5  
                    __ptext37 15C9                      __ptext29 15AB                      __rx_data 0079  
          i1_I2C_Master_Write 15A1    Temp_Conversion@_write_tens 003C                      _initUART 1640  
               __size_of_main 0063           ?i1_I2C_Master_Write 0070                    writeChar@a 0021  
                  txfunc@data 0020                BAUDSelect@freq 0022     Temp_Conversion@_temp_tens 0034  
        ??i1_I2C_Master_Write 0072                 ??_writeString 0022      __end_of_I2C_Master_Start 158F  
    __end_of_I2C_Master_Write 15C9                    _INTCONbits 000B                      intlevel1 0000  
            ___lldiv@dividend 0024                   ??_setCursor 0024                   ?_BAUDSelect 0070  
                   stringcode 1000                    _OSCCONbits 008F             ??_Temp_Conversion 0032  
     __end_of_I2C_Master_Init 1800       __end_of_I2C_Master_Wait 15E3       __end_of_I2C_Master_Stop 15A1  
      __Umul8_16@multiplicand 0020              ___lldiv@quotient 0029             I2C_Master_Write@d 0020  
                    stringdir 1000                      stringtab 1000                   _SSPCON2bits 0091  
                 ??_writeChar 0020                 ___fladd@signs 0058           __end_of_writeString 16CB  
                ___fladd@aexp 0059                  ___fladd@bexp 005A          __Umul8_16@multiplier 0028  
           __Umul8_16@product 0024  
